---
triple:          'arm64-apple-darwin'
binary-path:     a.out
relocations:
  - { offsetInCU: 0xB8, offset: 0xB8, size: 0x8, addend: 0x0, symName: __ZSt23__is_constant_evaluatedv, symObjAddr: 0x0, symBinAddr: 0x100000B50, symSize: 0x8 }
  - { offsetInCU: 0xC0, offset: 0xC0, size: 0x8, addend: 0x0, symName: __ZNSt8__detail11__synth3wayE, symObjAddr: 0x4790, symBinAddr: 0x10000592C, symSize: 0x0 }
  - { offsetInCU: 0xBFB, offset: 0xBFB, size: 0x8, addend: 0x0, symName: __ZSt3absd, symObjAddr: 0x8, symBinAddr: 0x100000B58, symSize: 0x18 }
  - { offsetInCU: 0xC03, offset: 0xC03, size: 0x8, addend: 0x0, symName: __ZSt21is_constant_evaluatedv, symObjAddr: 0x20, symBinAddr: 0x100000B70, symSize: 0x8 }
  - { offsetInCU: 0x1D58, offset: 0x1D58, size: 0x8, addend: 0x0, symName: __ZNSt8__detail11__synth3wayE, symObjAddr: 0x4790, symBinAddr: 0x10000592C, symSize: 0x0 }
  - { offsetInCU: 0x171F8, offset: 0x171F8, size: 0x8, addend: 0x0, symName: __ZStL8__ioinit, symObjAddr: 0xC1450, symBinAddr: 0x10000C077, symSize: 0x0 }
  - { offsetInCU: 0x206D4, offset: 0x206D4, size: 0x8, addend: 0x0, symName: __ZNSt8__detail14__destructibleISt13_Bit_iteratorEE, symObjAddr: 0x4791, symBinAddr: 0x10000592D, symSize: 0x0 }
  - { offsetInCU: 0x206EE, offset: 0x206EE, size: 0x8, addend: 0x0, symName: __ZNSt8__detail19__destructible_implISt13_Bit_iteratorEE, symObjAddr: 0x4792, symBinAddr: 0x10000592E, symSize: 0x0 }
  - { offsetInCU: 0x20AA0, offset: 0x20AA0, size: 0x8, addend: 0x0, symName: __ZNSt8__detail14__destructibleISt19_Bit_const_iteratorEE, symObjAddr: 0x4793, symBinAddr: 0x10000592F, symSize: 0x0 }
  - { offsetInCU: 0x20ABA, offset: 0x20ABA, size: 0x8, addend: 0x0, symName: __ZNSt8__detail19__destructible_implISt19_Bit_const_iteratorEE, symObjAddr: 0x4794, symBinAddr: 0x100005930, symSize: 0x0 }
  - { offsetInCU: 0x2109D, offset: 0x2109D, size: 0x8, addend: 0x0, symName: __ZNSt8__detail14__destructibleINSt8__format10_Sink_iterIcEEEE, symObjAddr: 0x4795, symBinAddr: 0x100005931, symSize: 0x0 }
  - { offsetInCU: 0x210B7, offset: 0x210B7, size: 0x8, addend: 0x0, symName: __ZNSt8__detail19__destructible_implINSt8__format10_Sink_iterIcEEEE, symObjAddr: 0x4796, symBinAddr: 0x100005932, symSize: 0x0 }
  - { offsetInCU: 0x211FC, offset: 0x211FC, size: 0x8, addend: 0x0, symName: __ZNSt8__detail14__destructibleINSt8__format10_Sink_iterIwEEEE, symObjAddr: 0x4797, symBinAddr: 0x100005933, symSize: 0x0 }
  - { offsetInCU: 0x21216, offset: 0x21216, size: 0x8, addend: 0x0, symName: __ZNSt8__detail19__destructible_implINSt8__format10_Sink_iterIwEEEE, symObjAddr: 0x4798, symBinAddr: 0x100005934, symSize: 0x0 }
  - { offsetInCU: 0x2132D, offset: 0x2132D, size: 0x8, addend: 0x0, symName: __ZNSt8__detail14__destructibleIPcEE, symObjAddr: 0x4799, symBinAddr: 0x100005935, symSize: 0x0 }
  - { offsetInCU: 0x21347, offset: 0x21347, size: 0x8, addend: 0x0, symName: __ZNSt8__detail19__destructible_implIPcEE, symObjAddr: 0x479A, symBinAddr: 0x100005936, symSize: 0x0 }
  - { offsetInCU: 0x216F9, offset: 0x216F9, size: 0x8, addend: 0x0, symName: __ZNSt8__detail14__destructibleIPwEE, symObjAddr: 0x479B, symBinAddr: 0x100005937, symSize: 0x0 }
  - { offsetInCU: 0x21713, offset: 0x21713, size: 0x8, addend: 0x0, symName: __ZNSt8__detail19__destructible_implIPwEE, symObjAddr: 0x479C, symBinAddr: 0x100005938, symSize: 0x0 }
  - { offsetInCU: 0x21DA3, offset: 0x21DA3, size: 0x8, addend: 0x0, symName: __ZNSt8__detail14__destructibleIiEE, symObjAddr: 0x479D, symBinAddr: 0x100005939, symSize: 0x0 }
  - { offsetInCU: 0x21DBD, offset: 0x21DBD, size: 0x8, addend: 0x0, symName: __ZNSt8__detail19__destructible_implIiEE, symObjAddr: 0x479E, symBinAddr: 0x10000593A, symSize: 0x0 }
  - { offsetInCU: 0x221DF, offset: 0x221DF, size: 0x8, addend: 0x0, symName: __ZNSt8__detail30__integer_to_chars_is_unsignedIjEE, symObjAddr: 0x479F, symBinAddr: 0x10000593B, symSize: 0x0 }
  - { offsetInCU: 0x221F9, offset: 0x221F9, size: 0x8, addend: 0x0, symName: __ZNSt8__detail30__integer_to_chars_is_unsignedImEE, symObjAddr: 0x47A0, symBinAddr: 0x10000593C, symSize: 0x0 }
  - { offsetInCU: 0x22213, offset: 0x22213, size: 0x8, addend: 0x0, symName: __ZNSt8__detail30__integer_to_chars_is_unsignedIyEE, symObjAddr: 0x47A1, symBinAddr: 0x10000593D, symSize: 0x0 }
  - { offsetInCU: 0x22468, offset: 0x22468, size: 0x8, addend: 0x0, symName: __ZSt22__is_specialization_ofINSt7__cxx1112basic_stringIcSt11char_traitsIcESaIcEEES1_E, symObjAddr: 0x47A2, symBinAddr: 0x10000593E, symSize: 0x0 }
  - { offsetInCU: 0x224F4, offset: 0x224F4, size: 0x8, addend: 0x0, symName: __ZSt22__is_specialization_ofINSt7__cxx1112basic_stringIwSt11char_traitsIwESaIwEEES1_E, symObjAddr: 0x47A3, symBinAddr: 0x10000593F, symSize: 0x0 }
  - { offsetInCU: 0x22621, offset: 0x22621, size: 0x8, addend: 0x0, symName: __ZNSt8__detail14__destructibleImEE, symObjAddr: 0x47A4, symBinAddr: 0x100005940, symSize: 0x0 }
  - { offsetInCU: 0x2263B, offset: 0x2263B, size: 0x8, addend: 0x0, symName: __ZNSt8__detail19__destructible_implImEE, symObjAddr: 0x47A5, symBinAddr: 0x100005941, symSize: 0x0 }
  - { offsetInCU: 0x228ED, offset: 0x228ED, size: 0x8, addend: 0x0, symName: __ZNSt8__detail14__destructibleIPKcEE, symObjAddr: 0x47A6, symBinAddr: 0x100005942, symSize: 0x0 }
  - { offsetInCU: 0x22907, offset: 0x22907, size: 0x8, addend: 0x0, symName: __ZNSt8__detail19__destructible_implIPKcEE, symObjAddr: 0x47A7, symBinAddr: 0x100005943, symSize: 0x0 }
  - { offsetInCU: 0x22BA5, offset: 0x22BA5, size: 0x8, addend: 0x0, symName: __ZNSt8__detail14__destructibleIPKwEE, symObjAddr: 0x47A8, symBinAddr: 0x100005944, symSize: 0x0 }
  - { offsetInCU: 0x22BBF, offset: 0x22BBF, size: 0x8, addend: 0x0, symName: __ZNSt8__detail19__destructible_implIPKwEE, symObjAddr: 0x47A9, symBinAddr: 0x100005945, symSize: 0x0 }
  - { offsetInCU: 0x237B0, offset: 0x237B0, size: 0x8, addend: 0x0, symName: __ZNSt8__detail14__destructibleIN9__gnu_cxx17__normal_iteratorIPwSt4spanIwLm18446744073709551615EEEEEE, symObjAddr: 0x47AA, symBinAddr: 0x100005946, symSize: 0x0 }
  - { offsetInCU: 0x237CA, offset: 0x237CA, size: 0x8, addend: 0x0, symName: __ZNSt8__detail19__destructible_implIN9__gnu_cxx17__normal_iteratorIPwSt4spanIwLm18446744073709551615EEEEEE, symObjAddr: 0x47AB, symBinAddr: 0x100005947, symSize: 0x0 }
  - { offsetInCU: 0x23D5F, offset: 0x23D5F, size: 0x8, addend: 0x0, symName: __ZNSt8__detail14__destructibleIN9__gnu_cxx17__normal_iteratorIPcSt4spanIcLm18446744073709551615EEEEEE, symObjAddr: 0x47AC, symBinAddr: 0x100005948, symSize: 0x0 }
  - { offsetInCU: 0x23D79, offset: 0x23D79, size: 0x8, addend: 0x0, symName: __ZNSt8__detail19__destructible_implIN9__gnu_cxx17__normal_iteratorIPcSt4spanIcLm18446744073709551615EEEEEE, symObjAddr: 0x47AD, symBinAddr: 0x100005949, symSize: 0x0 }
  - { offsetInCU: 0x23F8D, offset: 0x23F8D, size: 0x8, addend: 0x0, symName: __ZNSt8__detail14__destructibleIjEE, symObjAddr: 0x47AE, symBinAddr: 0x10000594A, symSize: 0x0 }
  - { offsetInCU: 0x23FA7, offset: 0x23FA7, size: 0x8, addend: 0x0, symName: __ZNSt8__detail19__destructible_implIjEE, symObjAddr: 0x47AF, symBinAddr: 0x10000594B, symSize: 0x0 }
  - { offsetInCU: 0x24176, offset: 0x24176, size: 0x8, addend: 0x0, symName: __ZNSt8__detail14__destructibleIlEE, symObjAddr: 0x47B0, symBinAddr: 0x10000594C, symSize: 0x0 }
  - { offsetInCU: 0x24190, offset: 0x24190, size: 0x8, addend: 0x0, symName: __ZNSt8__detail19__destructible_implIlEE, symObjAddr: 0x47B1, symBinAddr: 0x10000594D, symSize: 0x0 }
  - { offsetInCU: 0x24851, offset: 0x24851, size: 0x8, addend: 0x0, symName: __ZNSt8__detail30__integer_to_chars_is_unsignedIoEE, symObjAddr: 0x47B2, symBinAddr: 0x10000594E, symSize: 0x0 }
  - { offsetInCU: 0x24893, offset: 0x24893, size: 0x8, addend: 0x0, symName: __GLOBAL__sub_I_closestpair.cpp, symObjAddr: 0x477C, symBinAddr: 0x1000052CC, symSize: 0x14 }
  - { offsetInCU: 0x2489B, offset: 0x2489B, size: 0x8, addend: 0x0, symName: __ZNSt8__detail11__synth3wayE, symObjAddr: 0x4790, symBinAddr: 0x10000592C, symSize: 0x0 }
  - { offsetInCU: 0x248B8, offset: 0x248B8, size: 0x8, addend: 0x0, symName: __Z41__static_initialization_and_destruction_0v, symObjAddr: 0x4740, symBinAddr: 0x100005290, symSize: 0x3C }
  - { offsetInCU: 0x248C0, offset: 0x248C0, size: 0x8, addend: 0x0, symName: __GLOBAL__sub_I_closestpair.cpp, symObjAddr: 0x477C, symBinAddr: 0x1000052CC, symSize: 0x14 }
  - { offsetInCU: 0x248AA, offset: 0x248AA, size: 0x8, addend: 0x0, symName: __ZNSt11__copy_moveILb0ELb0ESt26random_access_iterator_tagE12__assign_oneI5PointKS3_EEvPT_PT0_, symObjAddr: 0x4718, symBinAddr: 0x100005268, symSize: 0x28 }
  - { offsetInCU: 0x248B2, offset: 0x248B2, size: 0x8, addend: 0x0, symName: __Z41__static_initialization_and_destruction_0v, symObjAddr: 0x4740, symBinAddr: 0x100005290, symSize: 0x3C }
  - { offsetInCU: 0x2490A, offset: 0x2490A, size: 0x8, addend: 0x0, symName: __ZNSt11__copy_moveILb1ELb0ESt26random_access_iterator_tagE12__assign_oneI5PointS3_EEvPT_PT0_, symObjAddr: 0x46E8, symBinAddr: 0x100005238, symSize: 0x30 }
  - { offsetInCU: 0x24912, offset: 0x24912, size: 0x8, addend: 0x0, symName: __ZNSt11__copy_moveILb0ELb0ESt26random_access_iterator_tagE12__assign_oneI5PointKS3_EEvPT_PT0_, symObjAddr: 0x4718, symBinAddr: 0x100005268, symSize: 0x28 }
  - { offsetInCU: 0x249DA, offset: 0x249DA, size: 0x8, addend: 0x0, symName: __ZSt12construct_atI5PointJS0_EEDTgsnwcvPvLi0E_T_pispcl7declvalIT0_EEEEPS2_DpOS3_, symObjAddr: 0x46A0, symBinAddr: 0x1000051F0, symSize: 0x48 }
  - { offsetInCU: 0x249E2, offset: 0x249E2, size: 0x8, addend: 0x0, symName: __ZNSt11__copy_moveILb1ELb0ESt26random_access_iterator_tagE12__assign_oneI5PointS3_EEvPT_PT0_, symObjAddr: 0x46E8, symBinAddr: 0x100005238, symSize: 0x30 }
  - { offsetInCU: 0x249D6, offset: 0x249D6, size: 0x8, addend: 0x0, symName: __ZN9__gnu_cxx5__ops14_Iter_comp_valIZ7closestSt6vectorI5PointSaIS3_EEEUlS3_S3_E_EclINS_17__normal_iteratorIPS3_S5_EES3_EEbT_RT0_, symObjAddr: 0x464C, symBinAddr: 0x10000519C, symSize: 0x54 }
  - { offsetInCU: 0x249DE, offset: 0x249DE, size: 0x8, addend: 0x0, symName: __ZSt12construct_atI5PointJS0_EEDTgsnwcvPvLi0E_T_pispcl7declvalIT0_EEEEPS2_DpOS3_, symObjAddr: 0x46A0, symBinAddr: 0x1000051F0, symSize: 0x48 }
  - { offsetInCU: 0x24A46, offset: 0x24A46, size: 0x8, addend: 0x0, symName: __ZNSt11__copy_moveILb0ELb1ESt26random_access_iterator_tagE8__copy_mIK5PointS3_EEPT0_PT_S8_S6_, symObjAddr: 0x45BC, symBinAddr: 0x10000510C, symSize: 0x90 }
  - { offsetInCU: 0x24A4E, offset: 0x24A4E, size: 0x8, addend: 0x0, symName: __ZN9__gnu_cxx5__ops14_Iter_comp_valIZ7closestSt6vectorI5PointSaIS3_EEEUlS3_S3_E_EclINS_17__normal_iteratorIPS3_S5_EES3_EEbT_RT0_, symObjAddr: 0x464C, symBinAddr: 0x10000519C, symSize: 0x54 }
  - { offsetInCU: 0x24ACE, offset: 0x24ACE, size: 0x8, addend: 0x0, symName: __ZNSt11__copy_moveILb0ELb0ESt26random_access_iterator_tagE8__copy_mIPK5PointPS3_EET0_T_S8_S7_, symObjAddr: 0x4548, symBinAddr: 0x100005098, symSize: 0x74 }
  - { offsetInCU: 0x24AD6, offset: 0x24AD6, size: 0x8, addend: 0x0, symName: __ZNSt11__copy_moveILb0ELb1ESt26random_access_iterator_tagE8__copy_mIK5PointS3_EEPT0_PT_S8_S6_, symObjAddr: 0x45BC, symBinAddr: 0x10000510C, symSize: 0x90 }
  - { offsetInCU: 0x24B7A, offset: 0x24B7A, size: 0x8, addend: 0x0, symName: __ZNSt20__copy_move_backwardILb1ELb1ESt26random_access_iterator_tagE13__copy_move_bI5PointS3_EEPT0_PT_S7_S5_, symObjAddr: 0x449C, symBinAddr: 0x100004FEC, symSize: 0xAC }
  - { offsetInCU: 0x24B82, offset: 0x24B82, size: 0x8, addend: 0x0, symName: __ZNSt11__copy_moveILb0ELb0ESt26random_access_iterator_tagE8__copy_mIPK5PointPS3_EET0_T_S8_S7_, symObjAddr: 0x4548, symBinAddr: 0x100005098, symSize: 0x74 }
  - { offsetInCU: 0x24C02, offset: 0x24C02, size: 0x8, addend: 0x0, symName: __ZNSt20__copy_move_backwardILb1ELb0ESt26random_access_iterator_tagE13__copy_move_bIP5PointS4_EET0_T_S6_S5_, symObjAddr: 0x441C, symBinAddr: 0x100004F6C, symSize: 0x80 }
  - { offsetInCU: 0x24C0A, offset: 0x24C0A, size: 0x8, addend: 0x0, symName: __ZNSt20__copy_move_backwardILb1ELb1ESt26random_access_iterator_tagE13__copy_move_bI5PointS3_EEPT0_PT_S7_S5_, symObjAddr: 0x449C, symBinAddr: 0x100004FEC, symSize: 0xAC }
  - { offsetInCU: 0x24C8A, offset: 0x24C8A, size: 0x8, addend: 0x0, symName: __ZN9__gnu_cxx5__ops14_Iter_comp_valIZ13compute_stripSt6vectorI5PointSaIS3_EERdEUlS3_S3_E_EclINS_17__normal_iteratorIPS3_S5_EES3_EEbT_RT0_, symObjAddr: 0x43C8, symBinAddr: 0x100004F18, symSize: 0x54 }
  - { offsetInCU: 0x24C92, offset: 0x24C92, size: 0x8, addend: 0x0, symName: __ZNSt20__copy_move_backwardILb1ELb0ESt26random_access_iterator_tagE13__copy_move_bIP5PointS4_EET0_T_S6_S5_, symObjAddr: 0x441C, symBinAddr: 0x100004F6C, symSize: 0x80 }
  - { offsetInCU: 0x24E07, offset: 0x24E07, size: 0x8, addend: 0x0, symName: __ZSt11__push_heapIN9__gnu_cxx17__normal_iteratorIP5PointSt6vectorIS2_SaIS2_EEEElS2_NS0_5__ops14_Iter_comp_valIZ7closestS6_EUlS2_S2_E_EEEvT_T0_SD_T1_RT2_, symObjAddr: 0x4278, symBinAddr: 0x100004DC8, symSize: 0x150 }
  - { offsetInCU: 0x24E0F, offset: 0x24E0F, size: 0x8, addend: 0x0, symName: __ZN9__gnu_cxx5__ops14_Iter_comp_valIZ13compute_stripSt6vectorI5PointSaIS3_EERdEUlS3_S3_E_EclINS_17__normal_iteratorIPS3_S5_EES3_EEbT_RT0_, symObjAddr: 0x43C8, symBinAddr: 0x100004F18, symSize: 0x54 }
  - { offsetInCU: 0x24E8A, offset: 0x24E8A, size: 0x8, addend: 0x0, symName: __ZSt14__copy_move_a2ILb0EPK5PointPS0_ET1_T0_S5_S4_, symObjAddr: 0x4220, symBinAddr: 0x100004D70, symSize: 0x58 }
  - { offsetInCU: 0x24E92, offset: 0x24E92, size: 0x8, addend: 0x0, symName: __ZSt11__push_heapIN9__gnu_cxx17__normal_iteratorIP5PointSt6vectorIS2_SaIS2_EEEElS2_NS0_5__ops14_Iter_comp_valIZ7closestS6_EUlS2_S2_E_EEEvT_T0_SD_T1_RT2_, symObjAddr: 0x4278, symBinAddr: 0x100004DC8, symSize: 0x150 }
  - { offsetInCU: 0x24F23, offset: 0x24F23, size: 0x8, addend: 0x0, symName: __ZSt23__copy_move_backward_a2ILb1EP5PointS1_ET1_T0_S3_S2_, symObjAddr: 0x41C8, symBinAddr: 0x100004D18, symSize: 0x58 }
  - { offsetInCU: 0x24F2B, offset: 0x24F2B, size: 0x8, addend: 0x0, symName: __ZSt14__copy_move_a2ILb0EPK5PointPS0_ET1_T0_S5_S4_, symObjAddr: 0x4220, symBinAddr: 0x100004D70, symSize: 0x58 }
  - { offsetInCU: 0x25006, offset: 0x25006, size: 0x8, addend: 0x0, symName: __ZSt11__push_heapIN9__gnu_cxx17__normal_iteratorIP5PointSt6vectorIS2_SaIS2_EEEElS2_NS0_5__ops14_Iter_comp_valIZ13compute_stripS6_RdEUlS2_S2_E_EEEvT_T0_SE_T1_RT2_, symObjAddr: 0x4078, symBinAddr: 0x100004BC8, symSize: 0x150 }
  - { offsetInCU: 0x2500E, offset: 0x2500E, size: 0x8, addend: 0x0, symName: __ZSt23__copy_move_backward_a2ILb1EP5PointS1_ET1_T0_S3_S2_, symObjAddr: 0x41C8, symBinAddr: 0x100004D18, symSize: 0x58 }
  - { offsetInCU: 0x2508A, offset: 0x2508A, size: 0x8, addend: 0x0, symName: __ZSt19__relocate_object_aI5PointS0_SaIS0_EEvPT_PT0_RT1_, symObjAddr: 0x3FFC, symBinAddr: 0x100004B4C, symSize: 0x7C }
  - { offsetInCU: 0x25092, offset: 0x25092, size: 0x8, addend: 0x0, symName: __ZSt11__push_heapIN9__gnu_cxx17__normal_iteratorIP5PointSt6vectorIS2_SaIS2_EEEElS2_NS0_5__ops14_Iter_comp_valIZ13compute_stripS6_RdEUlS2_S2_E_EEEvT_T0_SE_T1_RT2_, symObjAddr: 0x4078, symBinAddr: 0x100004BC8, symSize: 0x150 }
  - { offsetInCU: 0x25115, offset: 0x25115, size: 0x8, addend: 0x0, symName: __ZNK9__gnu_cxx17__normal_iteratorIP5PointvEdeEv, symObjAddr: 0x3FE4, symBinAddr: 0x100004B34, symSize: 0x18 }
  - { offsetInCU: 0x2511D, offset: 0x2511D, size: 0x8, addend: 0x0, symName: __ZSt19__relocate_object_aI5PointS0_SaIS0_EEvPT_PT0_RT1_, symObjAddr: 0x3FFC, symBinAddr: 0x100004B4C, symSize: 0x7C }
  - { offsetInCU: 0x25145, offset: 0x25145, size: 0x8, addend: 0x0, symName: __ZN9__gnu_cxx17__normal_iteratorIP5PointvEppEv, symObjAddr: 0x3FBC, symBinAddr: 0x100004B0C, symSize: 0x28 }
  - { offsetInCU: 0x2514D, offset: 0x2514D, size: 0x8, addend: 0x0, symName: __ZNK9__gnu_cxx17__normal_iteratorIP5PointvEdeEv, symObjAddr: 0x3FE4, symBinAddr: 0x100004B34, symSize: 0x18 }
  - { offsetInCU: 0x25244, offset: 0x25244, size: 0x8, addend: 0x0, symName: __ZSt13__adjust_heapIN9__gnu_cxx17__normal_iteratorIP5PointSt6vectorIS2_SaIS2_EEEElS2_NS0_5__ops15_Iter_comp_iterIZ7closestS6_EUlS2_S2_E_EEEvT_T0_SD_T1_T2_, symObjAddr: 0x3DD0, symBinAddr: 0x100004920, symSize: 0x1EC }
  - { offsetInCU: 0x2524C, offset: 0x2524C, size: 0x8, addend: 0x0, symName: __ZN9__gnu_cxx17__normal_iteratorIP5PointvEppEv, symObjAddr: 0x3FBC, symBinAddr: 0x100004B0C, symSize: 0x28 }
  - { offsetInCU: 0x252BF, offset: 0x252BF, size: 0x8, addend: 0x0, symName: __ZSt12__niter_wrapIP5PointET_RKS2_S2_, symObjAddr: 0x3DB8, symBinAddr: 0x100004908, symSize: 0x18 }
  - { offsetInCU: 0x252C7, offset: 0x252C7, size: 0x8, addend: 0x0, symName: __ZSt13__adjust_heapIN9__gnu_cxx17__normal_iteratorIP5PointSt6vectorIS2_SaIS2_EEEElS2_NS0_5__ops15_Iter_comp_iterIZ7closestS6_EUlS2_S2_E_EEEvT_T0_SD_T1_T2_, symObjAddr: 0x3DD0, symBinAddr: 0x100004920, symSize: 0x1EC }
  - { offsetInCU: 0x2533D, offset: 0x2533D, size: 0x8, addend: 0x0, symName: __ZSt14__copy_move_a1ILb0EPK5PointPS0_ET1_T0_S5_S4_, symObjAddr: 0x3D8C, symBinAddr: 0x1000048DC, symSize: 0x2C }
  - { offsetInCU: 0x25345, offset: 0x25345, size: 0x8, addend: 0x0, symName: __ZSt12__niter_wrapIP5PointET_RKS2_S2_, symObjAddr: 0x3DB8, symBinAddr: 0x100004908, symSize: 0x18 }
  - { offsetInCU: 0x253F9, offset: 0x253F9, size: 0x8, addend: 0x0, symName: __ZSt12__niter_baseIPK5PointSt6vectorIS0_SaIS0_EEET_N9__gnu_cxx17__normal_iteratorIS6_T0_EE, symObjAddr: 0x3D6C, symBinAddr: 0x1000048BC, symSize: 0x20 }
  - { offsetInCU: 0x25401, offset: 0x25401, size: 0x8, addend: 0x0, symName: __ZSt14__copy_move_a1ILb0EPK5PointPS0_ET1_T0_S5_S4_, symObjAddr: 0x3D8C, symBinAddr: 0x1000048DC, symSize: 0x2C }
  - { offsetInCU: 0x25475, offset: 0x25475, size: 0x8, addend: 0x0, symName: __ZSt12__niter_wrapIN9__gnu_cxx17__normal_iteratorIP5PointSt6vectorIS2_SaIS2_EEEES3_ET_S8_T0_, symObjAddr: 0x3D30, symBinAddr: 0x100004880, symSize: 0x3C }
  - { offsetInCU: 0x2547D, offset: 0x2547D, size: 0x8, addend: 0x0, symName: __ZSt12__niter_baseIPK5PointSt6vectorIS0_SaIS0_EEET_N9__gnu_cxx17__normal_iteratorIS6_T0_EE, symObjAddr: 0x3D6C, symBinAddr: 0x1000048BC, symSize: 0x20 }
  - { offsetInCU: 0x2549E, offset: 0x2549E, size: 0x8, addend: 0x0, symName: __ZSt23__copy_move_backward_a1ILb1EP5PointS1_ET1_T0_S3_S2_, symObjAddr: 0x3D04, symBinAddr: 0x100004854, symSize: 0x2C }
  - { offsetInCU: 0x254A6, offset: 0x254A6, size: 0x8, addend: 0x0, symName: __ZSt12__niter_wrapIN9__gnu_cxx17__normal_iteratorIP5PointSt6vectorIS2_SaIS2_EEEES3_ET_S8_T0_, symObjAddr: 0x3D30, symBinAddr: 0x100004880, symSize: 0x3C }
  - { offsetInCU: 0x2554A, offset: 0x2554A, size: 0x8, addend: 0x0, symName: __ZSt12__niter_baseIP5PointSt6vectorIS0_SaIS0_EEET_N9__gnu_cxx17__normal_iteratorIS5_T0_EE, symObjAddr: 0x3CE4, symBinAddr: 0x100004834, symSize: 0x20 }
  - { offsetInCU: 0x25552, offset: 0x25552, size: 0x8, addend: 0x0, symName: __ZSt23__copy_move_backward_a1ILb1EP5PointS1_ET1_T0_S3_S2_, symObjAddr: 0x3D04, symBinAddr: 0x100004854, symSize: 0x2C }
  - { offsetInCU: 0x255C9, offset: 0x255C9, size: 0x8, addend: 0x0, symName: __ZSt4swapI5PointENSt9enable_ifIXsrSt6__and_IJSt6__not_ISt15__is_tuple_likeIT_EESt21is_move_constructibleIS5_ESt18is_move_assignableIS5_EEE5valueEvE4typeERS5_SF_, symObjAddr: 0x3C90, symBinAddr: 0x1000047E0, symSize: 0x54 }
  - { offsetInCU: 0x255D1, offset: 0x255D1, size: 0x8, addend: 0x0, symName: __ZSt12__niter_baseIP5PointSt6vectorIS0_SaIS0_EEET_N9__gnu_cxx17__normal_iteratorIS5_T0_EE, symObjAddr: 0x3CE4, symBinAddr: 0x100004834, symSize: 0x20 }
  - { offsetInCU: 0x25647, offset: 0x25647, size: 0x8, addend: 0x0, symName: __ZSt13__adjust_heapIN9__gnu_cxx17__normal_iteratorIP5PointSt6vectorIS2_SaIS2_EEEElS2_NS0_5__ops15_Iter_comp_iterIZ13compute_stripS6_RdEUlS2_S2_E_EEEvT_T0_SE_T1_T2_, symObjAddr: 0x3AA4, symBinAddr: 0x1000045F4, symSize: 0x1EC }
  - { offsetInCU: 0x2564F, offset: 0x2564F, size: 0x8, addend: 0x0, symName: __ZSt4swapI5PointENSt9enable_ifIXsrSt6__and_IJSt6__not_ISt15__is_tuple_likeIT_EESt21is_move_constructibleIS5_ESt18is_move_assignableIS5_EEE5valueEvE4typeERS5_SF_, symObjAddr: 0x3C90, symBinAddr: 0x1000047E0, symSize: 0x54 }
  - { offsetInCU: 0x25673, offset: 0x25673, size: 0x8, addend: 0x0, symName: __ZNK9__gnu_cxx17__normal_iteratorIP5PointvE4baseEv, symObjAddr: 0x3A90, symBinAddr: 0x1000045E0, symSize: 0x14 }
  - { offsetInCU: 0x2567B, offset: 0x2567B, size: 0x8, addend: 0x0, symName: __ZSt13__adjust_heapIN9__gnu_cxx17__normal_iteratorIP5PointSt6vectorIS2_SaIS2_EEEElS2_NS0_5__ops15_Iter_comp_iterIZ13compute_stripS6_RdEUlS2_S2_E_EEEvT_T0_SE_T1_T2_, symObjAddr: 0x3AA4, symBinAddr: 0x1000045F4, symSize: 0x1EC }
  - { offsetInCU: 0x2575C, offset: 0x2575C, size: 0x8, addend: 0x0, symName: __ZSt14__relocate_a_1IP5PointN9__gnu_cxx17__normal_iteratorIS1_vEESaIS0_EET0_T_S7_S6_RT1_, symObjAddr: 0x3A0C, symBinAddr: 0x10000455C, symSize: 0x84 }
  - { offsetInCU: 0x25764, offset: 0x25764, size: 0x8, addend: 0x0, symName: __ZNK9__gnu_cxx17__normal_iteratorIP5PointvE4baseEv, symObjAddr: 0x3A90, symBinAddr: 0x1000045E0, symSize: 0x14 }
  - { offsetInCU: 0x2575A, offset: 0x2575A, size: 0x8, addend: 0x0, symName: __ZNSt15__new_allocatorI5PointE8allocateEmPKv, symObjAddr: 0x3990, symBinAddr: 0x1000044E0, symSize: 0x7C }
  - { offsetInCU: 0x25762, offset: 0x25762, size: 0x8, addend: 0x0, symName: __ZSt14__relocate_a_1IP5PointN9__gnu_cxx17__normal_iteratorIS1_vEESaIS0_EET0_T_S7_S6_RT1_, symObjAddr: 0x3A0C, symBinAddr: 0x10000455C, symSize: 0x84 }
  - { offsetInCU: 0x257E6, offset: 0x257E6, size: 0x8, addend: 0x0, symName: __ZN9__gnu_cxx5__ops14_Val_comp_iterIZ7closestSt6vectorI5PointSaIS3_EEEUlS3_S3_E_EclIS3_NS_17__normal_iteratorIPS3_S5_EEEEbRT_T0_, symObjAddr: 0x3940, symBinAddr: 0x100004490, symSize: 0x50 }
  - { offsetInCU: 0x257EE, offset: 0x257EE, size: 0x8, addend: 0x0, symName: __ZNSt15__new_allocatorI5PointE8allocateEmPKv, symObjAddr: 0x3990, symBinAddr: 0x1000044E0, symSize: 0x7C }
  - { offsetInCU: 0x25883, offset: 0x25883, size: 0x8, addend: 0x0, symName: __ZN9__gnu_cxx5__ops14_Val_comp_iterIZ7closestSt6vectorI5PointSaIS3_EEEUlS3_S3_E_EC1EONS0_15_Iter_comp_iterIS6_EE, symObjAddr: 0x391C, symBinAddr: 0x10000446C, symSize: 0x24 }
  - { offsetInCU: 0x2588B, offset: 0x2588B, size: 0x8, addend: 0x0, symName: __ZN9__gnu_cxx5__ops14_Val_comp_iterIZ7closestSt6vectorI5PointSaIS3_EEEUlS3_S3_E_EclIS3_NS_17__normal_iteratorIPS3_S5_EEEEbRT_T0_, symObjAddr: 0x3940, symBinAddr: 0x100004490, symSize: 0x50 }
  - { offsetInCU: 0x2591E, offset: 0x2591E, size: 0x8, addend: 0x0, symName: __ZSt4moveIRN9__gnu_cxx5__ops15_Iter_comp_iterIZ7closestSt6vectorI5PointSaIS4_EEEUlS4_S4_E_EEEONSt16remove_referenceIT_E4typeEOSB_, symObjAddr: 0x3908, symBinAddr: 0x100004458, symSize: 0x14 }
  - { offsetInCU: 0x25926, offset: 0x25926, size: 0x8, addend: 0x0, symName: __ZN9__gnu_cxx5__ops14_Val_comp_iterIZ7closestSt6vectorI5PointSaIS3_EEEUlS3_S3_E_EC1EONS0_15_Iter_comp_iterIS6_EE, symObjAddr: 0x391C, symBinAddr: 0x10000446C, symSize: 0x24 }
  - { offsetInCU: 0x259B5, offset: 0x259B5, size: 0x8, addend: 0x0, symName: __ZSt10__pop_heapIN9__gnu_cxx17__normal_iteratorIP5PointSt6vectorIS2_SaIS2_EEEENS0_5__ops15_Iter_comp_iterIZ7closestS6_EUlS2_S2_E_EEEvT_SC_SC_RT0_, symObjAddr: 0x386C, symBinAddr: 0x1000043BC, symSize: 0x9C }
  - { offsetInCU: 0x259BD, offset: 0x259BD, size: 0x8, addend: 0x0, symName: __ZSt4moveIRN9__gnu_cxx5__ops15_Iter_comp_iterIZ7closestSt6vectorI5PointSaIS4_EEEUlS4_S4_E_EEEONSt16remove_referenceIT_E4typeEOSB_, symObjAddr: 0x3908, symBinAddr: 0x100004458, symSize: 0x14 }
  - { offsetInCU: 0x25A70, offset: 0x25A70, size: 0x8, addend: 0x0, symName: __ZSt11__make_heapIN9__gnu_cxx17__normal_iteratorIP5PointSt6vectorIS2_SaIS2_EEEENS0_5__ops15_Iter_comp_iterIZ7closestS6_EUlS2_S2_E_EEEvT_SC_RT0_, symObjAddr: 0x3790, symBinAddr: 0x1000042E0, symSize: 0xDC }
  - { offsetInCU: 0x25A78, offset: 0x25A78, size: 0x8, addend: 0x0, symName: __ZSt10__pop_heapIN9__gnu_cxx17__normal_iteratorIP5PointSt6vectorIS2_SaIS2_EEEENS0_5__ops15_Iter_comp_iterIZ7closestS6_EUlS2_S2_E_EEEvT_SC_SC_RT0_, symObjAddr: 0x386C, symBinAddr: 0x1000043BC, symSize: 0x9C }
  - { offsetInCU: 0x25B8A, offset: 0x25B8A, size: 0x8, addend: 0x0, symName: __ZSt13__copy_move_aILb0EN9__gnu_cxx17__normal_iteratorIPK5PointSt6vectorIS2_SaIS2_EEEEPS2_ET1_T0_SB_SA_, symObjAddr: 0x3730, symBinAddr: 0x100004280, symSize: 0x60 }
  - { offsetInCU: 0x25B92, offset: 0x25B92, size: 0x8, addend: 0x0, symName: __ZSt11__make_heapIN9__gnu_cxx17__normal_iteratorIP5PointSt6vectorIS2_SaIS2_EEEENS0_5__ops15_Iter_comp_iterIZ7closestS6_EUlS2_S2_E_EEEvT_SC_RT0_, symObjAddr: 0x3790, symBinAddr: 0x1000042E0, symSize: 0xDC }
  - { offsetInCU: 0x25BFB, offset: 0x25BFB, size: 0x8, addend: 0x0, symName: __ZSt12__miter_baseIN9__gnu_cxx17__normal_iteratorIPK5PointSt6vectorIS2_SaIS2_EEEEET_S9_, symObjAddr: 0x371C, symBinAddr: 0x10000426C, symSize: 0x14 }
  - { offsetInCU: 0x25C03, offset: 0x25C03, size: 0x8, addend: 0x0, symName: __ZSt13__copy_move_aILb0EN9__gnu_cxx17__normal_iteratorIPK5PointSt6vectorIS2_SaIS2_EEEEPS2_ET1_T0_SB_SA_, symObjAddr: 0x3730, symBinAddr: 0x100004280, symSize: 0x60 }
  - { offsetInCU: 0x25B9C, offset: 0x25B9C, size: 0x8, addend: 0x0, symName: __ZN9__gnu_cxx5__ops14_Val_comp_iterIZ13compute_stripSt6vectorI5PointSaIS3_EERdEUlS3_S3_E_EclIS3_NS_17__normal_iteratorIPS3_S5_EEEEbRT_T0_, symObjAddr: 0x36CC, symBinAddr: 0x10000421C, symSize: 0x50 }
  - { offsetInCU: 0x25BA4, offset: 0x25BA4, size: 0x8, addend: 0x0, symName: __ZSt12__miter_baseIN9__gnu_cxx17__normal_iteratorIPK5PointSt6vectorIS2_SaIS2_EEEEET_S9_, symObjAddr: 0x371C, symBinAddr: 0x10000426C, symSize: 0x14 }
  - { offsetInCU: 0x25C39, offset: 0x25C39, size: 0x8, addend: 0x0, symName: __ZN9__gnu_cxx5__ops14_Val_comp_iterIZ13compute_stripSt6vectorI5PointSaIS3_EERdEUlS3_S3_E_EC1EONS0_15_Iter_comp_iterIS7_EE, symObjAddr: 0x36A8, symBinAddr: 0x1000041F8, symSize: 0x24 }
  - { offsetInCU: 0x25C41, offset: 0x25C41, size: 0x8, addend: 0x0, symName: __ZN9__gnu_cxx5__ops14_Val_comp_iterIZ13compute_stripSt6vectorI5PointSaIS3_EERdEUlS3_S3_E_EclIS3_NS_17__normal_iteratorIPS3_S5_EEEEbRT_T0_, symObjAddr: 0x36CC, symBinAddr: 0x10000421C, symSize: 0x50 }
  - { offsetInCU: 0x25CE3, offset: 0x25CE3, size: 0x8, addend: 0x0, symName: __ZSt4moveIRN9__gnu_cxx5__ops15_Iter_comp_iterIZ13compute_stripSt6vectorI5PointSaIS4_EERdEUlS4_S4_E_EEEONSt16remove_referenceIT_E4typeEOSC_, symObjAddr: 0x3694, symBinAddr: 0x1000041E4, symSize: 0x14 }
  - { offsetInCU: 0x25CEB, offset: 0x25CEB, size: 0x8, addend: 0x0, symName: __ZN9__gnu_cxx5__ops14_Val_comp_iterIZ13compute_stripSt6vectorI5PointSaIS3_EERdEUlS3_S3_E_EC1EONS0_15_Iter_comp_iterIS7_EE, symObjAddr: 0x36A8, symBinAddr: 0x1000041F8, symSize: 0x24 }
  - { offsetInCU: 0x25DD3, offset: 0x25DD3, size: 0x8, addend: 0x0, symName: __ZSt22__copy_move_backward_aILb1EN9__gnu_cxx17__normal_iteratorIP5PointSt6vectorIS2_SaIS2_EEEES7_ET1_T0_S9_S8_, symObjAddr: 0x3634, symBinAddr: 0x100004184, symSize: 0x60 }
  - { offsetInCU: 0x25DDB, offset: 0x25DDB, size: 0x8, addend: 0x0, symName: __ZSt4moveIRN9__gnu_cxx5__ops15_Iter_comp_iterIZ13compute_stripSt6vectorI5PointSaIS4_EERdEUlS4_S4_E_EEEONSt16remove_referenceIT_E4typeEOSC_, symObjAddr: 0x3694, symBinAddr: 0x1000041E4, symSize: 0x14 }
  - { offsetInCU: 0x25E00, offset: 0x25E00, size: 0x8, addend: 0x0, symName: __ZSt12__miter_baseIN9__gnu_cxx17__normal_iteratorIP5PointSt6vectorIS2_SaIS2_EEEEET_S8_, symObjAddr: 0x3620, symBinAddr: 0x100004170, symSize: 0x14 }
  - { offsetInCU: 0x25E08, offset: 0x25E08, size: 0x8, addend: 0x0, symName: __ZSt22__copy_move_backward_aILb1EN9__gnu_cxx17__normal_iteratorIP5PointSt6vectorIS2_SaIS2_EEEES7_ET1_T0_S9_S8_, symObjAddr: 0x3634, symBinAddr: 0x100004184, symSize: 0x60 }
  - { offsetInCU: 0x25E81, offset: 0x25E81, size: 0x8, addend: 0x0, symName: __ZSt9iter_swapIN9__gnu_cxx17__normal_iteratorIP5PointSt6vectorIS2_SaIS2_EEEES7_EvT_T0_, symObjAddr: 0x35DC, symBinAddr: 0x10000412C, symSize: 0x44 }
  - { offsetInCU: 0x25E89, offset: 0x25E89, size: 0x8, addend: 0x0, symName: __ZSt12__miter_baseIN9__gnu_cxx17__normal_iteratorIP5PointSt6vectorIS2_SaIS2_EEEEET_S8_, symObjAddr: 0x3620, symBinAddr: 0x100004170, symSize: 0x14 }
  - { offsetInCU: 0x25E0B, offset: 0x25E0B, size: 0x8, addend: 0x0, symName: __ZN9__gnu_cxx17__normal_iteratorIP5PointSt6vectorIS1_SaIS1_EEEmmEv, symObjAddr: 0x35B4, symBinAddr: 0x100004104, symSize: 0x28 }
  - { offsetInCU: 0x25E13, offset: 0x25E13, size: 0x8, addend: 0x0, symName: __ZSt9iter_swapIN9__gnu_cxx17__normal_iteratorIP5PointSt6vectorIS2_SaIS2_EEEES7_EvT_T0_, symObjAddr: 0x35DC, symBinAddr: 0x10000412C, symSize: 0x44 }
  - { offsetInCU: 0x25EEA, offset: 0x25EEA, size: 0x8, addend: 0x0, symName: __ZSt10__pop_heapIN9__gnu_cxx17__normal_iteratorIP5PointSt6vectorIS2_SaIS2_EEEENS0_5__ops15_Iter_comp_iterIZ13compute_stripS6_RdEUlS2_S2_E_EEEvT_SD_SD_RT0_, symObjAddr: 0x3518, symBinAddr: 0x100004068, symSize: 0x9C }
  - { offsetInCU: 0x25EF2, offset: 0x25EF2, size: 0x8, addend: 0x0, symName: __ZN9__gnu_cxx17__normal_iteratorIP5PointSt6vectorIS1_SaIS1_EEEmmEv, symObjAddr: 0x35B4, symBinAddr: 0x100004104, symSize: 0x28 }
  - { offsetInCU: 0x25FA5, offset: 0x25FA5, size: 0x8, addend: 0x0, symName: __ZSt11__make_heapIN9__gnu_cxx17__normal_iteratorIP5PointSt6vectorIS2_SaIS2_EEEENS0_5__ops15_Iter_comp_iterIZ13compute_stripS6_RdEUlS2_S2_E_EEEvT_SD_RT0_, symObjAddr: 0x343C, symBinAddr: 0x100003F8C, symSize: 0xDC }
  - { offsetInCU: 0x25FAD, offset: 0x25FAD, size: 0x8, addend: 0x0, symName: __ZSt10__pop_heapIN9__gnu_cxx17__normal_iteratorIP5PointSt6vectorIS2_SaIS2_EEEENS0_5__ops15_Iter_comp_iterIZ13compute_stripS6_RdEUlS2_S2_E_EEEvT_SD_SD_RT0_, symObjAddr: 0x3518, symBinAddr: 0x100004068, symSize: 0x9C }
  - { offsetInCU: 0x2608C, offset: 0x2608C, size: 0x8, addend: 0x0, symName: __ZSt14__relocate_a_1I5PointS0_ENSt9enable_ifIXsrSt24__is_bitwise_relocatableIT_vE5valueEPS3_E4typeES5_S5_S5_RSaIT0_E, symObjAddr: 0x3388, symBinAddr: 0x100003ED8, symSize: 0xB4 }
  - { offsetInCU: 0x26094, offset: 0x26094, size: 0x8, addend: 0x0, symName: __ZSt11__make_heapIN9__gnu_cxx17__normal_iteratorIP5PointSt6vectorIS2_SaIS2_EEEENS0_5__ops15_Iter_comp_iterIZ13compute_stripS6_RdEUlS2_S2_E_EEEvT_SD_RT0_, symObjAddr: 0x343C, symBinAddr: 0x100003F8C, symSize: 0xDC }
  - { offsetInCU: 0x26126, offset: 0x26126, size: 0x8, addend: 0x0, symName: __ZN9__gnu_cxx17__normal_iteratorIP5PointvEC1ERKS2_, symObjAddr: 0x3360, symBinAddr: 0x100003EB0, symSize: 0x28 }
  - { offsetInCU: 0x2612E, offset: 0x2612E, size: 0x8, addend: 0x0, symName: __ZSt14__relocate_a_1I5PointS0_ENSt9enable_ifIXsrSt24__is_bitwise_relocatableIT_vE5valueEPS3_E4typeES5_S5_S5_RSaIT0_E, symObjAddr: 0x3388, symBinAddr: 0x100003ED8, symSize: 0xB4 }
  - { offsetInCU: 0x2616B, offset: 0x2616B, size: 0x8, addend: 0x0, symName: __ZSt12__niter_baseIP5PointET_S2_, symObjAddr: 0x334C, symBinAddr: 0x100003E9C, symSize: 0x14 }
  - { offsetInCU: 0x26173, offset: 0x26173, size: 0x8, addend: 0x0, symName: __ZN9__gnu_cxx17__normal_iteratorIP5PointvEC1ERKS2_, symObjAddr: 0x3360, symBinAddr: 0x100003EB0, symSize: 0x28 }
  - { offsetInCU: 0x261A9, offset: 0x261A9, size: 0x8, addend: 0x0, symName: __ZNSt15__new_allocatorI5PointE10deallocateEPS0_m, symObjAddr: 0x331C, symBinAddr: 0x100003E6C, symSize: 0x30 }
  - { offsetInCU: 0x261B1, offset: 0x261B1, size: 0x8, addend: 0x0, symName: __ZSt12__niter_baseIP5PointET_S2_, symObjAddr: 0x334C, symBinAddr: 0x100003E9C, symSize: 0x14 }
  - { offsetInCU: 0x262AD, offset: 0x262AD, size: 0x8, addend: 0x0, symName: __ZSt25__unguarded_linear_insertIN9__gnu_cxx17__normal_iteratorIP5PointSt6vectorIS2_SaIS2_EEEENS0_5__ops14_Val_comp_iterIZ7closestS6_EUlS2_S2_E_EEEvT_T0_, symObjAddr: 0x325C, symBinAddr: 0x100003DAC, symSize: 0xC0 }
  - { offsetInCU: 0x262B5, offset: 0x262B5, size: 0x8, addend: 0x0, symName: __ZNSt15__new_allocatorI5PointE10deallocateEPS0_m, symObjAddr: 0x331C, symBinAddr: 0x100003E6C, symSize: 0x30 }
  - { offsetInCU: 0x262D2, offset: 0x262D2, size: 0x8, addend: 0x0, symName: __ZN9__gnu_cxx5__ops15__val_comp_iterIZ7closestSt6vectorI5PointSaIS3_EEEUlS3_S3_E_EENS0_14_Val_comp_iterIT_EENS0_15_Iter_comp_iterIS8_EE, symObjAddr: 0x3224, symBinAddr: 0x100003D74, symSize: 0x38 }
  - { offsetInCU: 0x262DA, offset: 0x262DA, size: 0x8, addend: 0x0, symName: __ZSt25__unguarded_linear_insertIN9__gnu_cxx17__normal_iteratorIP5PointSt6vectorIS2_SaIS2_EEEENS0_5__ops14_Val_comp_iterIZ7closestS6_EUlS2_S2_E_EEEvT_T0_, symObjAddr: 0x325C, symBinAddr: 0x100003DAC, symSize: 0xC0 }
  - { offsetInCU: 0x262CE, offset: 0x262CE, size: 0x8, addend: 0x0, symName: __ZN9__gnu_cxx5__ops15_Iter_comp_iterIZ7closestSt6vectorI5PointSaIS3_EEEUlS3_S3_E_EclINS_17__normal_iteratorIPS3_S5_EESB_EEbT_T0_, symObjAddr: 0x31CC, symBinAddr: 0x100003D1C, symSize: 0x58 }
  - { offsetInCU: 0x262D6, offset: 0x262D6, size: 0x8, addend: 0x0, symName: __ZN9__gnu_cxx5__ops15__val_comp_iterIZ7closestSt6vectorI5PointSaIS3_EEEUlS3_S3_E_EENS0_14_Val_comp_iterIT_EENS0_15_Iter_comp_iterIS8_EE, symObjAddr: 0x3224, symBinAddr: 0x100003D74, symSize: 0x38 }
  - { offsetInCU: 0x263EE, offset: 0x263EE, size: 0x8, addend: 0x0, symName: __ZSt21__unguarded_partitionIN9__gnu_cxx17__normal_iteratorIP5PointSt6vectorIS2_SaIS2_EEEENS0_5__ops15_Iter_comp_iterIZ7closestS6_EUlS2_S2_E_EEET_SC_SC_SC_T0_, symObjAddr: 0x30E4, symBinAddr: 0x100003C34, symSize: 0xE8 }
  - { offsetInCU: 0x263F6, offset: 0x263F6, size: 0x8, addend: 0x0, symName: __ZN9__gnu_cxx5__ops15_Iter_comp_iterIZ7closestSt6vectorI5PointSaIS3_EEEUlS3_S3_E_EclINS_17__normal_iteratorIPS3_S5_EESB_EEbT_T0_, symObjAddr: 0x31CC, symBinAddr: 0x100003D1C, symSize: 0x58 }
  - { offsetInCU: 0x2647B, offset: 0x2647B, size: 0x8, addend: 0x0, symName: __ZSt22__move_median_to_firstIN9__gnu_cxx17__normal_iteratorIP5PointSt6vectorIS2_SaIS2_EEEENS0_5__ops15_Iter_comp_iterIZ7closestS6_EUlS2_S2_E_EEEvT_SC_SC_SC_T0_, symObjAddr: 0x2FC0, symBinAddr: 0x100003B10, symSize: 0x124 }
  - { offsetInCU: 0x26483, offset: 0x26483, size: 0x8, addend: 0x0, symName: __ZSt21__unguarded_partitionIN9__gnu_cxx17__normal_iteratorIP5PointSt6vectorIS2_SaIS2_EEEENS0_5__ops15_Iter_comp_iterIZ7closestS6_EUlS2_S2_E_EEET_SC_SC_SC_T0_, symObjAddr: 0x30E4, symBinAddr: 0x100003C34, symSize: 0xE8 }
  - { offsetInCU: 0x26507, offset: 0x26507, size: 0x8, addend: 0x0, symName: __ZSt11__sort_heapIN9__gnu_cxx17__normal_iteratorIP5PointSt6vectorIS2_SaIS2_EEEENS0_5__ops15_Iter_comp_iterIZ7closestS6_EUlS2_S2_E_EEEvT_SC_RT0_, symObjAddr: 0x2F58, symBinAddr: 0x100003AA8, symSize: 0x68 }
  - { offsetInCU: 0x2650F, offset: 0x2650F, size: 0x8, addend: 0x0, symName: __ZSt22__move_median_to_firstIN9__gnu_cxx17__normal_iteratorIP5PointSt6vectorIS2_SaIS2_EEEENS0_5__ops15_Iter_comp_iterIZ7closestS6_EUlS2_S2_E_EEEvT_SC_SC_SC_T0_, symObjAddr: 0x2FC0, symBinAddr: 0x100003B10, symSize: 0x124 }
  - { offsetInCU: 0x2657E, offset: 0x2657E, size: 0x8, addend: 0x0, symName: __ZSt13__heap_selectIN9__gnu_cxx17__normal_iteratorIP5PointSt6vectorIS2_SaIS2_EEEENS0_5__ops15_Iter_comp_iterIZ7closestS6_EUlS2_S2_E_EEEvT_SC_SC_T0_, symObjAddr: 0x2E90, symBinAddr: 0x1000039E0, symSize: 0xC8 }
  - { offsetInCU: 0x26586, offset: 0x26586, size: 0x8, addend: 0x0, symName: __ZSt11__sort_heapIN9__gnu_cxx17__normal_iteratorIP5PointSt6vectorIS2_SaIS2_EEEENS0_5__ops15_Iter_comp_iterIZ7closestS6_EUlS2_S2_E_EEEvT_SC_RT0_, symObjAddr: 0x2F58, symBinAddr: 0x100003AA8, symSize: 0x68 }
  - { offsetInCU: 0x265B6, offset: 0x265B6, size: 0x8, addend: 0x0, symName: __ZSt8_DestroyI5PointEvPT_, symObjAddr: 0x2E70, symBinAddr: 0x1000039C0, symSize: 0x20 }
  - { offsetInCU: 0x265BE, offset: 0x265BE, size: 0x8, addend: 0x0, symName: __ZSt13__heap_selectIN9__gnu_cxx17__normal_iteratorIP5PointSt6vectorIS2_SaIS2_EEEENS0_5__ops15_Iter_comp_iterIZ7closestS6_EUlS2_S2_E_EEEvT_SC_SC_T0_, symObjAddr: 0x2E90, symBinAddr: 0x1000039E0, symSize: 0xC8 }
  - { offsetInCU: 0x2667A, offset: 0x2667A, size: 0x8, addend: 0x0, symName: __ZSt4copyIN9__gnu_cxx17__normal_iteratorIPK5PointSt6vectorIS2_SaIS2_EEEEPS2_ET0_T_SB_SA_, symObjAddr: 0x2E28, symBinAddr: 0x100003978, symSize: 0x48 }
  - { offsetInCU: 0x26682, offset: 0x26682, size: 0x8, addend: 0x0, symName: __ZSt8_DestroyI5PointEvPT_, symObjAddr: 0x2E70, symBinAddr: 0x1000039C0, symSize: 0x20 }
  - { offsetInCU: 0x26731, offset: 0x26731, size: 0x8, addend: 0x0, symName: __ZSt25__unguarded_linear_insertIN9__gnu_cxx17__normal_iteratorIP5PointSt6vectorIS2_SaIS2_EEEENS0_5__ops14_Val_comp_iterIZ13compute_stripS6_RdEUlS2_S2_E_EEEvT_T0_, symObjAddr: 0x2D68, symBinAddr: 0x1000038B8, symSize: 0xC0 }
  - { offsetInCU: 0x26739, offset: 0x26739, size: 0x8, addend: 0x0, symName: __ZSt4copyIN9__gnu_cxx17__normal_iteratorIPK5PointSt6vectorIS2_SaIS2_EEEEPS2_ET0_T_SB_SA_, symObjAddr: 0x2E28, symBinAddr: 0x100003978, symSize: 0x48 }
  - { offsetInCU: 0x26756, offset: 0x26756, size: 0x8, addend: 0x0, symName: __ZN9__gnu_cxx5__ops15__val_comp_iterIZ13compute_stripSt6vectorI5PointSaIS3_EERdEUlS3_S3_E_EENS0_14_Val_comp_iterIT_EENS0_15_Iter_comp_iterIS9_EE, symObjAddr: 0x2D30, symBinAddr: 0x100003880, symSize: 0x38 }
  - { offsetInCU: 0x2675E, offset: 0x2675E, size: 0x8, addend: 0x0, symName: __ZSt25__unguarded_linear_insertIN9__gnu_cxx17__normal_iteratorIP5PointSt6vectorIS2_SaIS2_EEEENS0_5__ops14_Val_comp_iterIZ13compute_stripS6_RdEUlS2_S2_E_EEEvT_T0_, symObjAddr: 0x2D68, symBinAddr: 0x1000038B8, symSize: 0xC0 }
  - { offsetInCU: 0x2682E, offset: 0x2682E, size: 0x8, addend: 0x0, symName: __ZSt13move_backwardIN9__gnu_cxx17__normal_iteratorIP5PointSt6vectorIS2_SaIS2_EEEES7_ET0_T_S9_S8_, symObjAddr: 0x2CE8, symBinAddr: 0x100003838, symSize: 0x48 }
  - { offsetInCU: 0x26836, offset: 0x26836, size: 0x8, addend: 0x0, symName: __ZN9__gnu_cxx5__ops15__val_comp_iterIZ13compute_stripSt6vectorI5PointSaIS3_EERdEUlS3_S3_E_EENS0_14_Val_comp_iterIT_EENS0_15_Iter_comp_iterIS9_EE, symObjAddr: 0x2D30, symBinAddr: 0x100003880, symSize: 0x38 }
  - { offsetInCU: 0x2680D, offset: 0x2680D, size: 0x8, addend: 0x0, symName: __ZSt4moveIR5PointEONSt16remove_referenceIT_E4typeEOS3_, symObjAddr: 0x2CD4, symBinAddr: 0x100003824, symSize: 0x14 }
  - { offsetInCU: 0x26815, offset: 0x26815, size: 0x8, addend: 0x0, symName: __ZSt13move_backwardIN9__gnu_cxx17__normal_iteratorIP5PointSt6vectorIS2_SaIS2_EEEES7_ET0_T_S9_S8_, symObjAddr: 0x2CE8, symBinAddr: 0x100003838, symSize: 0x48 }
  - { offsetInCU: 0x26819, offset: 0x26819, size: 0x8, addend: 0x0, symName: __ZN9__gnu_cxx5__ops15_Iter_comp_iterIZ13compute_stripSt6vectorI5PointSaIS3_EERdEUlS3_S3_E_EclINS_17__normal_iteratorIPS3_S5_EESC_EEbT_T0_, symObjAddr: 0x2C7C, symBinAddr: 0x1000037CC, symSize: 0x58 }
  - { offsetInCU: 0x26821, offset: 0x26821, size: 0x8, addend: 0x0, symName: __ZSt4moveIR5PointEONSt16remove_referenceIT_E4typeEOS3_, symObjAddr: 0x2CD4, symBinAddr: 0x100003824, symSize: 0x14 }
  - { offsetInCU: 0x26948, offset: 0x26948, size: 0x8, addend: 0x0, symName: __ZSt21__unguarded_partitionIN9__gnu_cxx17__normal_iteratorIP5PointSt6vectorIS2_SaIS2_EEEENS0_5__ops15_Iter_comp_iterIZ13compute_stripS6_RdEUlS2_S2_E_EEET_SD_SD_SD_T0_, symObjAddr: 0x2B94, symBinAddr: 0x1000036E4, symSize: 0xE8 }
  - { offsetInCU: 0x26950, offset: 0x26950, size: 0x8, addend: 0x0, symName: __ZN9__gnu_cxx5__ops15_Iter_comp_iterIZ13compute_stripSt6vectorI5PointSaIS3_EERdEUlS3_S3_E_EclINS_17__normal_iteratorIPS3_S5_EESC_EEbT_T0_, symObjAddr: 0x2C7C, symBinAddr: 0x1000037CC, symSize: 0x58 }
  - { offsetInCU: 0x269D5, offset: 0x269D5, size: 0x8, addend: 0x0, symName: __ZSt22__move_median_to_firstIN9__gnu_cxx17__normal_iteratorIP5PointSt6vectorIS2_SaIS2_EEEENS0_5__ops15_Iter_comp_iterIZ13compute_stripS6_RdEUlS2_S2_E_EEEvT_SD_SD_SD_T0_, symObjAddr: 0x2A70, symBinAddr: 0x1000035C0, symSize: 0x124 }
  - { offsetInCU: 0x269DD, offset: 0x269DD, size: 0x8, addend: 0x0, symName: __ZSt21__unguarded_partitionIN9__gnu_cxx17__normal_iteratorIP5PointSt6vectorIS2_SaIS2_EEEENS0_5__ops15_Iter_comp_iterIZ13compute_stripS6_RdEUlS2_S2_E_EEET_SD_SD_SD_T0_, symObjAddr: 0x2B94, symBinAddr: 0x1000036E4, symSize: 0xE8 }
  - { offsetInCU: 0x269B1, offset: 0x269B1, size: 0x8, addend: 0x0, symName: __ZNK9__gnu_cxx17__normal_iteratorIP5PointSt6vectorIS1_SaIS1_EEEmiEl, symObjAddr: 0x2A2C, symBinAddr: 0x10000357C, symSize: 0x44 }
  - { offsetInCU: 0x269B9, offset: 0x269B9, size: 0x8, addend: 0x0, symName: __ZSt22__move_median_to_firstIN9__gnu_cxx17__normal_iteratorIP5PointSt6vectorIS2_SaIS2_EEEENS0_5__ops15_Iter_comp_iterIZ13compute_stripS6_RdEUlS2_S2_E_EEEvT_SD_SD_SD_T0_, symObjAddr: 0x2A70, symBinAddr: 0x1000035C0, symSize: 0x124 }
  - { offsetInCU: 0x26AA5, offset: 0x26AA5, size: 0x8, addend: 0x0, symName: __ZSt11__sort_heapIN9__gnu_cxx17__normal_iteratorIP5PointSt6vectorIS2_SaIS2_EEEENS0_5__ops15_Iter_comp_iterIZ13compute_stripS6_RdEUlS2_S2_E_EEEvT_SD_RT0_, symObjAddr: 0x29C4, symBinAddr: 0x100003514, symSize: 0x68 }
  - { offsetInCU: 0x26AAD, offset: 0x26AAD, size: 0x8, addend: 0x0, symName: __ZNK9__gnu_cxx17__normal_iteratorIP5PointSt6vectorIS1_SaIS1_EEEmiEl, symObjAddr: 0x2A2C, symBinAddr: 0x10000357C, symSize: 0x44 }
  - { offsetInCU: 0x26B1C, offset: 0x26B1C, size: 0x8, addend: 0x0, symName: __ZSt13__heap_selectIN9__gnu_cxx17__normal_iteratorIP5PointSt6vectorIS2_SaIS2_EEEENS0_5__ops15_Iter_comp_iterIZ13compute_stripS6_RdEUlS2_S2_E_EEEvT_SD_SD_T0_, symObjAddr: 0x28FC, symBinAddr: 0x10000344C, symSize: 0xC8 }
  - { offsetInCU: 0x26B24, offset: 0x26B24, size: 0x8, addend: 0x0, symName: __ZSt11__sort_heapIN9__gnu_cxx17__normal_iteratorIP5PointSt6vectorIS2_SaIS2_EEEENS0_5__ops15_Iter_comp_iterIZ13compute_stripS6_RdEUlS2_S2_E_EEEvT_SD_RT0_, symObjAddr: 0x29C4, symBinAddr: 0x100003514, symSize: 0x68 }
  - { offsetInCU: 0x26BF0, offset: 0x26BF0, size: 0x8, addend: 0x0, symName: __ZN9__gnu_cxxssIP5PointSt6vectorIS1_SaIS1_EEEEDTclL_ZNSt8__detail11__synth3wayEEcl7declvalIRT_EEcl7declvalIS8_EEEERKNS_17__normal_iteratorIS7_T0_EESE_, symObjAddr: 0x28B4, symBinAddr: 0x100003404, symSize: 0x48 }
  - { offsetInCU: 0x26BF8, offset: 0x26BF8, size: 0x8, addend: 0x0, symName: __ZSt13__heap_selectIN9__gnu_cxx17__normal_iteratorIP5PointSt6vectorIS2_SaIS2_EEEENS0_5__ops15_Iter_comp_iterIZ13compute_stripS6_RdEUlS2_S2_E_EEEvT_SD_SD_T0_, symObjAddr: 0x28FC, symBinAddr: 0x10000344C, symSize: 0xC8 }
  - { offsetInCU: 0x26BB6, offset: 0x26BB6, size: 0x8, addend: 0x0, symName: __ZNKSt8__detail10_Synth3wayclIP5PointS3_EEDaRKT_RKT0_, symObjAddr: 0x2858, symBinAddr: 0x1000033A8, symSize: 0x5C }
  - { offsetInCU: 0x26BBE, offset: 0x26BBE, size: 0x8, addend: 0x0, symName: __ZN9__gnu_cxxssIP5PointSt6vectorIS1_SaIS1_EEEEDTclL_ZNSt8__detail11__synth3wayEEcl7declvalIRT_EEcl7declvalIS8_EEEERKNS_17__normal_iteratorIS7_T0_EESE_, symObjAddr: 0x28B4, symBinAddr: 0x100003404, symSize: 0x48 }
  - { offsetInCU: 0x26C58, offset: 0x26C58, size: 0x8, addend: 0x0, symName: __ZSt10destroy_atI5PointEvPT_, symObjAddr: 0x2844, symBinAddr: 0x100003394, symSize: 0x14 }
  - { offsetInCU: 0x26C60, offset: 0x26C60, size: 0x8, addend: 0x0, symName: __ZNKSt8__detail10_Synth3wayclIP5PointS3_EEDaRKT_RKT0_, symObjAddr: 0x2858, symBinAddr: 0x1000033A8, symSize: 0x5C }
  - { offsetInCU: 0x26CDA, offset: 0x26CDA, size: 0x8, addend: 0x0, symName: __ZSt12__relocate_aIP5PointS1_SaIS0_EET0_T_S4_S3_RT1_, symObjAddr: 0x27E8, symBinAddr: 0x100003338, symSize: 0x5C }
  - { offsetInCU: 0x26CE2, offset: 0x26CE2, size: 0x8, addend: 0x0, symName: __ZSt10destroy_atI5PointEvPT_, symObjAddr: 0x2844, symBinAddr: 0x100003394, symSize: 0x14 }
  - { offsetInCU: 0x26D3E, offset: 0x26D3E, size: 0x8, addend: 0x0, symName: __ZNSt6vectorI5PointSaIS0_EE11_S_max_sizeERKS1_, symObjAddr: 0x27AC, symBinAddr: 0x1000032FC, symSize: 0x3C }
  - { offsetInCU: 0x26D46, offset: 0x26D46, size: 0x8, addend: 0x0, symName: __ZSt12__relocate_aIP5PointS1_SaIS0_EET0_T_S4_S3_RT1_, symObjAddr: 0x27E8, symBinAddr: 0x100003338, symSize: 0x5C }
  - { offsetInCU: 0x26ECB, offset: 0x26ECB, size: 0x8, addend: 0x0, symName: __ZSt26__unguarded_insertion_sortIN9__gnu_cxx17__normal_iteratorIP5PointSt6vectorIS2_SaIS2_EEEENS0_5__ops15_Iter_comp_iterIZ7closestS6_EUlS2_S2_E_EEEvT_SC_T0_, symObjAddr: 0x2734, symBinAddr: 0x100003284, symSize: 0x78 }
  - { offsetInCU: 0x26ED3, offset: 0x26ED3, size: 0x8, addend: 0x0, symName: __ZNSt6vectorI5PointSaIS0_EE11_S_max_sizeERKS1_, symObjAddr: 0x27AC, symBinAddr: 0x1000032FC, symSize: 0x3C }
  - { offsetInCU: 0x26F5D, offset: 0x26F5D, size: 0x8, addend: 0x0, symName: __ZSt16__insertion_sortIN9__gnu_cxx17__normal_iteratorIP5PointSt6vectorIS2_SaIS2_EEEENS0_5__ops15_Iter_comp_iterIZ7closestS6_EUlS2_S2_E_EEEvT_SC_T0_, symObjAddr: 0x2624, symBinAddr: 0x100003174, symSize: 0x110 }
  - { offsetInCU: 0x26F65, offset: 0x26F65, size: 0x8, addend: 0x0, symName: __ZSt26__unguarded_insertion_sortIN9__gnu_cxx17__normal_iteratorIP5PointSt6vectorIS2_SaIS2_EEEENS0_5__ops15_Iter_comp_iterIZ7closestS6_EUlS2_S2_E_EEEvT_SC_T0_, symObjAddr: 0x2734, symBinAddr: 0x100003284, symSize: 0x78 }
  - { offsetInCU: 0x27030, offset: 0x27030, size: 0x8, addend: 0x0, symName: __ZSt27__unguarded_partition_pivotIN9__gnu_cxx17__normal_iteratorIP5PointSt6vectorIS2_SaIS2_EEEENS0_5__ops15_Iter_comp_iterIZ7closestS6_EUlS2_S2_E_EEET_SC_SC_T0_, symObjAddr: 0x2588, symBinAddr: 0x1000030D8, symSize: 0x9C }
  - { offsetInCU: 0x27038, offset: 0x27038, size: 0x8, addend: 0x0, symName: __ZSt16__insertion_sortIN9__gnu_cxx17__normal_iteratorIP5PointSt6vectorIS2_SaIS2_EEEENS0_5__ops15_Iter_comp_iterIZ7closestS6_EUlS2_S2_E_EEEvT_SC_T0_, symObjAddr: 0x2624, symBinAddr: 0x100003174, symSize: 0x110 }
  - { offsetInCU: 0x270AF, offset: 0x270AF, size: 0x8, addend: 0x0, symName: __ZSt14__partial_sortIN9__gnu_cxx17__normal_iteratorIP5PointSt6vectorIS2_SaIS2_EEEENS0_5__ops15_Iter_comp_iterIZ7closestS6_EUlS2_S2_E_EEEvT_SC_SC_T0_, symObjAddr: 0x253C, symBinAddr: 0x10000308C, symSize: 0x4C }
  - { offsetInCU: 0x270B7, offset: 0x270B7, size: 0x8, addend: 0x0, symName: __ZSt27__unguarded_partition_pivotIN9__gnu_cxx17__normal_iteratorIP5PointSt6vectorIS2_SaIS2_EEEENS0_5__ops15_Iter_comp_iterIZ7closestS6_EUlS2_S2_E_EEET_SC_SC_T0_, symObjAddr: 0x2588, symBinAddr: 0x1000030D8, symSize: 0x9C }
  - { offsetInCU: 0x27094, offset: 0x27094, size: 0x8, addend: 0x0, symName: __ZNSt12_Destroy_auxILb1EE9__destroyIP5PointEEvT_S4_, symObjAddr: 0x2524, symBinAddr: 0x100003074, symSize: 0x18 }
  - { offsetInCU: 0x2709C, offset: 0x2709C, size: 0x8, addend: 0x0, symName: __ZSt14__partial_sortIN9__gnu_cxx17__normal_iteratorIP5PointSt6vectorIS2_SaIS2_EEEENS0_5__ops15_Iter_comp_iterIZ7closestS6_EUlS2_S2_E_EEEvT_SC_SC_T0_, symObjAddr: 0x253C, symBinAddr: 0x10000308C, symSize: 0x4C }
  - { offsetInCU: 0x270D9, offset: 0x270D9, size: 0x8, addend: 0x0, symName: __ZNSt12_Destroy_auxILb0EE9__destroyIP5PointEEvT_S4_, symObjAddr: 0x24D8, symBinAddr: 0x100003028, symSize: 0x4C }
  - { offsetInCU: 0x270E1, offset: 0x270E1, size: 0x8, addend: 0x0, symName: __ZNSt12_Destroy_auxILb1EE9__destroyIP5PointEEvT_S4_, symObjAddr: 0x2524, symBinAddr: 0x100003074, symSize: 0x18 }
  - { offsetInCU: 0x2712A, offset: 0x2712A, size: 0x8, addend: 0x0, symName: __ZNSt20__uninitialized_copyILb1EE13__uninit_copyIN9__gnu_cxx17__normal_iteratorIPK5PointSt6vectorIS4_SaIS4_EEEEPS4_EET0_T_SD_SC_, symObjAddr: 0x24AC, symBinAddr: 0x100002FFC, symSize: 0x2C }
  - { offsetInCU: 0x27132, offset: 0x27132, size: 0x8, addend: 0x0, symName: __ZNSt12_Destroy_auxILb0EE9__destroyIP5PointEEvT_S4_, symObjAddr: 0x24D8, symBinAddr: 0x100003028, symSize: 0x4C }
  - { offsetInCU: 0x271E6, offset: 0x271E6, size: 0x8, addend: 0x0, symName: __ZSt10_ConstructI5PointJRKS0_EEvPT_DpOT0_, symObjAddr: 0x243C, symBinAddr: 0x100002F8C, symSize: 0x70 }
  - { offsetInCU: 0x271EE, offset: 0x271EE, size: 0x8, addend: 0x0, symName: __ZNSt20__uninitialized_copyILb1EE13__uninit_copyIN9__gnu_cxx17__normal_iteratorIPK5PointSt6vectorIS4_SaIS4_EEEEPS4_EET0_T_SD_SC_, symObjAddr: 0x24AC, symBinAddr: 0x100002FFC, symSize: 0x2C }
  - { offsetInCU: 0x27200, offset: 0x27200, size: 0x8, addend: 0x0, symName: __ZNK9__gnu_cxx17__normal_iteratorIPK5PointSt6vectorIS1_SaIS1_EEEdeEv, symObjAddr: 0x2424, symBinAddr: 0x100002F74, symSize: 0x18 }
  - { offsetInCU: 0x27208, offset: 0x27208, size: 0x8, addend: 0x0, symName: __ZSt10_ConstructI5PointJRKS0_EEvPT_DpOT0_, symObjAddr: 0x243C, symBinAddr: 0x100002F8C, symSize: 0x70 }
  - { offsetInCU: 0x27268, offset: 0x27268, size: 0x8, addend: 0x0, symName: __ZSt11__addressofI5PointEPT_RS1_, symObjAddr: 0x2410, symBinAddr: 0x100002F60, symSize: 0x14 }
  - { offsetInCU: 0x27270, offset: 0x27270, size: 0x8, addend: 0x0, symName: __ZNK9__gnu_cxx17__normal_iteratorIPK5PointSt6vectorIS1_SaIS1_EEEdeEv, symObjAddr: 0x2424, symBinAddr: 0x100002F74, symSize: 0x18 }
  - { offsetInCU: 0x2727A, offset: 0x2727A, size: 0x8, addend: 0x0, symName: __ZN9__gnu_cxx17__normal_iteratorIPK5PointSt6vectorIS1_SaIS1_EEEppEv, symObjAddr: 0x23E8, symBinAddr: 0x100002F38, symSize: 0x28 }
  - { offsetInCU: 0x27282, offset: 0x27282, size: 0x8, addend: 0x0, symName: __ZSt11__addressofI5PointEPT_RS1_, symObjAddr: 0x2410, symBinAddr: 0x100002F60, symSize: 0x14 }
  - { offsetInCU: 0x27395, offset: 0x27395, size: 0x8, addend: 0x0, symName: __ZSt26__unguarded_insertion_sortIN9__gnu_cxx17__normal_iteratorIP5PointSt6vectorIS2_SaIS2_EEEENS0_5__ops15_Iter_comp_iterIZ13compute_stripS6_RdEUlS2_S2_E_EEEvT_SD_T0_, symObjAddr: 0x2370, symBinAddr: 0x100002EC0, symSize: 0x78 }
  - { offsetInCU: 0x2739D, offset: 0x2739D, size: 0x8, addend: 0x0, symName: __ZN9__gnu_cxx17__normal_iteratorIPK5PointSt6vectorIS1_SaIS1_EEEppEv, symObjAddr: 0x23E8, symBinAddr: 0x100002F38, symSize: 0x28 }
  - { offsetInCU: 0x27427, offset: 0x27427, size: 0x8, addend: 0x0, symName: __ZSt16__insertion_sortIN9__gnu_cxx17__normal_iteratorIP5PointSt6vectorIS2_SaIS2_EEEENS0_5__ops15_Iter_comp_iterIZ13compute_stripS6_RdEUlS2_S2_E_EEEvT_SD_T0_, symObjAddr: 0x2260, symBinAddr: 0x100002DB0, symSize: 0x110 }
  - { offsetInCU: 0x2742F, offset: 0x2742F, size: 0x8, addend: 0x0, symName: __ZSt26__unguarded_insertion_sortIN9__gnu_cxx17__normal_iteratorIP5PointSt6vectorIS2_SaIS2_EEEENS0_5__ops15_Iter_comp_iterIZ13compute_stripS6_RdEUlS2_S2_E_EEEvT_SD_T0_, symObjAddr: 0x2370, symBinAddr: 0x100002EC0, symSize: 0x78 }
  - { offsetInCU: 0x27435, offset: 0x27435, size: 0x8, addend: 0x0, symName: __ZNK9__gnu_cxx17__normal_iteratorIP5PointSt6vectorIS1_SaIS1_EEEplEl, symObjAddr: 0x2220, symBinAddr: 0x100002D70, symSize: 0x40 }
  - { offsetInCU: 0x2743D, offset: 0x2743D, size: 0x8, addend: 0x0, symName: __ZSt16__insertion_sortIN9__gnu_cxx17__normal_iteratorIP5PointSt6vectorIS2_SaIS2_EEEENS0_5__ops15_Iter_comp_iterIZ13compute_stripS6_RdEUlS2_S2_E_EEEvT_SD_T0_, symObjAddr: 0x2260, symBinAddr: 0x100002DB0, symSize: 0x110 }
  - { offsetInCU: 0x2753E, offset: 0x2753E, size: 0x8, addend: 0x0, symName: __ZSt27__unguarded_partition_pivotIN9__gnu_cxx17__normal_iteratorIP5PointSt6vectorIS2_SaIS2_EEEENS0_5__ops15_Iter_comp_iterIZ13compute_stripS6_RdEUlS2_S2_E_EEET_SD_SD_T0_, symObjAddr: 0x2184, symBinAddr: 0x100002CD4, symSize: 0x9C }
  - { offsetInCU: 0x27546, offset: 0x27546, size: 0x8, addend: 0x0, symName: __ZNK9__gnu_cxx17__normal_iteratorIP5PointSt6vectorIS1_SaIS1_EEEplEl, symObjAddr: 0x2220, symBinAddr: 0x100002D70, symSize: 0x40 }
  - { offsetInCU: 0x275BD, offset: 0x275BD, size: 0x8, addend: 0x0, symName: __ZSt14__partial_sortIN9__gnu_cxx17__normal_iteratorIP5PointSt6vectorIS2_SaIS2_EEEENS0_5__ops15_Iter_comp_iterIZ13compute_stripS6_RdEUlS2_S2_E_EEEvT_SD_SD_T0_, symObjAddr: 0x2138, symBinAddr: 0x100002C88, symSize: 0x4C }
  - { offsetInCU: 0x275C5, offset: 0x275C5, size: 0x8, addend: 0x0, symName: __ZSt27__unguarded_partition_pivotIN9__gnu_cxx17__normal_iteratorIP5PointSt6vectorIS2_SaIS2_EEEENS0_5__ops15_Iter_comp_iterIZ13compute_stripS6_RdEUlS2_S2_E_EEET_SD_SD_T0_, symObjAddr: 0x2184, symBinAddr: 0x100002CD4, symSize: 0x9C }
  - { offsetInCU: 0x275D2, offset: 0x275D2, size: 0x8, addend: 0x0, symName: __ZSt13__countl_zeroImEiT_, symObjAddr: 0x20E4, symBinAddr: 0x100002C34, symSize: 0x54 }
  - { offsetInCU: 0x275DA, offset: 0x275DA, size: 0x8, addend: 0x0, symName: __ZSt14__partial_sortIN9__gnu_cxx17__normal_iteratorIP5PointSt6vectorIS2_SaIS2_EEEENS0_5__ops15_Iter_comp_iterIZ13compute_stripS6_RdEUlS2_S2_E_EEEvT_SD_SD_T0_, symObjAddr: 0x2138, symBinAddr: 0x100002C88, symSize: 0x4C }
  - { offsetInCU: 0x2768C, offset: 0x2768C, size: 0x8, addend: 0x0, symName: __ZNSt6vectorI5PointSaIS0_EE11_S_relocateEPS0_S3_S3_RS1_, symObjAddr: 0x20B0, symBinAddr: 0x100002C00, symSize: 0x34 }
  - { offsetInCU: 0x27694, offset: 0x27694, size: 0x8, addend: 0x0, symName: __ZSt13__countl_zeroImEiT_, symObjAddr: 0x20E4, symBinAddr: 0x100002C34, symSize: 0x54 }
  - { offsetInCU: 0x276FA, offset: 0x276FA, size: 0x8, addend: 0x0, symName: __ZNSt12_Vector_baseI5PointSaIS0_EE11_M_allocateEm, symObjAddr: 0x1FE8, symBinAddr: 0x100002B38, symSize: 0xC8 }
  - { offsetInCU: 0x27702, offset: 0x27702, size: 0x8, addend: 0x0, symName: __ZNSt6vectorI5PointSaIS0_EE11_S_relocateEPS0_S3_S3_RS1_, symObjAddr: 0x20B0, symBinAddr: 0x100002C00, symSize: 0x34 }
  - { offsetInCU: 0x277A8, offset: 0x277A8, size: 0x8, addend: 0x0, symName: __ZNKSt6vectorI5PointSaIS0_EE8max_sizeEv, symObjAddr: 0x1FC8, symBinAddr: 0x100002B18, symSize: 0x20 }
  - { offsetInCU: 0x277B0, offset: 0x277B0, size: 0x8, addend: 0x0, symName: __ZNSt12_Vector_baseI5PointSaIS0_EE11_M_allocateEm, symObjAddr: 0x1FE8, symBinAddr: 0x100002B38, symSize: 0xC8 }
  - { offsetInCU: 0x27851, offset: 0x27851, size: 0x8, addend: 0x0, symName: __ZSt12construct_atI5PointJRKS0_EEDTgsnwcvPvLi0E_T_pispcl7declvalIT0_EEEEPS4_DpOS5_, symObjAddr: 0x1F80, symBinAddr: 0x100002AD0, symSize: 0x48 }
  - { offsetInCU: 0x27859, offset: 0x27859, size: 0x8, addend: 0x0, symName: __ZNKSt6vectorI5PointSaIS0_EE8max_sizeEv, symObjAddr: 0x1FC8, symBinAddr: 0x100002B18, symSize: 0x20 }
  - { offsetInCU: 0x27899, offset: 0x27899, size: 0x8, addend: 0x0, symName: __ZSt7forwardIRK5PointEOT_RNSt16remove_referenceIS3_E4typeE, symObjAddr: 0x1F6C, symBinAddr: 0x100002ABC, symSize: 0x14 }
  - { offsetInCU: 0x278A1, offset: 0x278A1, size: 0x8, addend: 0x0, symName: __ZSt12construct_atI5PointJRKS0_EEDTgsnwcvPvLi0E_T_pispcl7declvalIT0_EEEEPS4_DpOS5_, symObjAddr: 0x1F80, symBinAddr: 0x100002AD0, symSize: 0x48 }
  - { offsetInCU: 0x27986, offset: 0x27986, size: 0x8, addend: 0x0, symName: __ZSt22__final_insertion_sortIN9__gnu_cxx17__normal_iteratorIP5PointSt6vectorIS2_SaIS2_EEEENS0_5__ops15_Iter_comp_iterIZ7closestS6_EUlS2_S2_E_EEEvT_SC_T0_, symObjAddr: 0x1EE0, symBinAddr: 0x100002A30, symSize: 0x8C }
  - { offsetInCU: 0x2798E, offset: 0x2798E, size: 0x8, addend: 0x0, symName: __ZSt7forwardIRK5PointEOT_RNSt16remove_referenceIS3_E4typeE, symObjAddr: 0x1F6C, symBinAddr: 0x100002ABC, symSize: 0x14 }
  - { offsetInCU: 0x279FF, offset: 0x279FF, size: 0x8, addend: 0x0, symName: __ZSt16__introsort_loopIN9__gnu_cxx17__normal_iteratorIP5PointSt6vectorIS2_SaIS2_EEEElNS0_5__ops15_Iter_comp_iterIZ7closestS6_EUlS2_S2_E_EEEvT_SC_T0_T1_, symObjAddr: 0x1E38, symBinAddr: 0x100002988, symSize: 0xA8 }
  - { offsetInCU: 0x27A07, offset: 0x27A07, size: 0x8, addend: 0x0, symName: __ZSt22__final_insertion_sortIN9__gnu_cxx17__normal_iteratorIP5PointSt6vectorIS2_SaIS2_EEEENS0_5__ops15_Iter_comp_iterIZ7closestS6_EUlS2_S2_E_EEEvT_SC_T0_, symObjAddr: 0x1EE0, symBinAddr: 0x100002A30, symSize: 0x8C }
  - { offsetInCU: 0x27A39, offset: 0x27A39, size: 0x8, addend: 0x0, symName: __ZN9__gnu_cxx5__ops15_Iter_comp_iterIZ7closestSt6vectorI5PointSaIS3_EEEUlS3_S3_E_EC1ES6_, symObjAddr: 0x1E14, symBinAddr: 0x100002964, symSize: 0x24 }
  - { offsetInCU: 0x27A41, offset: 0x27A41, size: 0x8, addend: 0x0, symName: __ZSt16__introsort_loopIN9__gnu_cxx17__normal_iteratorIP5PointSt6vectorIS2_SaIS2_EEEElNS0_5__ops15_Iter_comp_iterIZ7closestS6_EUlS2_S2_E_EEEvT_SC_T0_T1_, symObjAddr: 0x1E38, symBinAddr: 0x100002988, symSize: 0xA8 }
  - { offsetInCU: 0x27AB0, offset: 0x27AB0, size: 0x8, addend: 0x0, symName: __ZSt4moveIRZ7closestSt6vectorI5PointSaIS1_EEEUlS1_S1_E_EONSt16remove_referenceIT_E4typeEOS7_, symObjAddr: 0x1E00, symBinAddr: 0x100002950, symSize: 0x14 }
  - { offsetInCU: 0x27AB8, offset: 0x27AB8, size: 0x8, addend: 0x0, symName: __ZN9__gnu_cxx5__ops15_Iter_comp_iterIZ7closestSt6vectorI5PointSaIS3_EEEUlS3_S3_E_EC1ES6_, symObjAddr: 0x1E14, symBinAddr: 0x100002964, symSize: 0x24 }
  - { offsetInCU: 0x27AFA, offset: 0x27AFA, size: 0x8, addend: 0x0, symName: __ZSt8_DestroyIP5PointEvT_S2_, symObjAddr: 0x1DB8, symBinAddr: 0x100002908, symSize: 0x48 }
  - { offsetInCU: 0x27B02, offset: 0x27B02, size: 0x8, addend: 0x0, symName: __ZSt4moveIRZ7closestSt6vectorI5PointSaIS1_EEEUlS1_S1_E_EONSt16remove_referenceIT_E4typeEOS7_, symObjAddr: 0x1E00, symBinAddr: 0x100002950, symSize: 0x14 }
  - { offsetInCU: 0x27BE9, offset: 0x27BE9, size: 0x8, addend: 0x0, symName: __ZSt18uninitialized_copyIN9__gnu_cxx17__normal_iteratorIPK5PointSt6vectorIS2_SaIS2_EEEEPS2_ET0_T_SB_SA_, symObjAddr: 0x1D7C, symBinAddr: 0x1000028CC, symSize: 0x3C }
  - { offsetInCU: 0x27BF1, offset: 0x27BF1, size: 0x8, addend: 0x0, symName: __ZSt8_DestroyIP5PointEvT_S2_, symObjAddr: 0x1DB8, symBinAddr: 0x100002908, symSize: 0x48 }
  - { offsetInCU: 0x27C88, offset: 0x27C88, size: 0x8, addend: 0x0, symName: __ZSt16__do_uninit_copyIN9__gnu_cxx17__normal_iteratorIPK5PointSt6vectorIS2_SaIS2_EEEEPS2_ET0_T_SB_SA_, symObjAddr: 0x1CF0, symBinAddr: 0x100002840, symSize: 0x8C }
  - { offsetInCU: 0x27C90, offset: 0x27C90, size: 0x8, addend: 0x0, symName: __ZSt18uninitialized_copyIN9__gnu_cxx17__normal_iteratorIPK5PointSt6vectorIS2_SaIS2_EEEEPS2_ET0_T_SB_SA_, symObjAddr: 0x1D7C, symBinAddr: 0x1000028CC, symSize: 0x3C }
  - { offsetInCU: 0x27C54, offset: 0x27C54, size: 0x8, addend: 0x0, symName: __ZNK9__gnu_cxx17__normal_iteratorIPK5PointSt6vectorIS1_SaIS1_EEE4baseEv, symObjAddr: 0x1CDC, symBinAddr: 0x10000282C, symSize: 0x14 }
  - { offsetInCU: 0x27C5C, offset: 0x27C5C, size: 0x8, addend: 0x0, symName: __ZSt16__do_uninit_copyIN9__gnu_cxx17__normal_iteratorIPK5PointSt6vectorIS2_SaIS2_EEEEPS2_ET0_T_SB_SA_, symObjAddr: 0x1CF0, symBinAddr: 0x100002840, symSize: 0x8C }
  - { offsetInCU: 0x27D0B, offset: 0x27D0B, size: 0x8, addend: 0x0, symName: __ZN9__gnu_cxxeqIPK5PointSt6vectorIS1_SaIS1_EEEEbRKNS_17__normal_iteratorIT_T0_EESC_, symObjAddr: 0x1C98, symBinAddr: 0x1000027E8, symSize: 0x44 }
  - { offsetInCU: 0x27D13, offset: 0x27D13, size: 0x8, addend: 0x0, symName: __ZNK9__gnu_cxx17__normal_iteratorIPK5PointSt6vectorIS1_SaIS1_EEE4baseEv, symObjAddr: 0x1CDC, symBinAddr: 0x10000282C, symSize: 0x14 }
  - { offsetInCU: 0x27D71, offset: 0x27D71, size: 0x8, addend: 0x0, symName: __ZN9__gnu_cxx17__normal_iteratorIPK5PointSt6vectorIS1_SaIS1_EEEC1ERKS3_, symObjAddr: 0x1C70, symBinAddr: 0x1000027C0, symSize: 0x28 }
  - { offsetInCU: 0x27D79, offset: 0x27D79, size: 0x8, addend: 0x0, symName: __ZN9__gnu_cxxeqIPK5PointSt6vectorIS1_SaIS1_EEEEbRKNS_17__normal_iteratorIT_T0_EESC_, symObjAddr: 0x1C98, symBinAddr: 0x1000027E8, symSize: 0x44 }
  - { offsetInCU: 0x27D66, offset: 0x27D66, size: 0x8, addend: 0x0, symName: __ZNSt12_Vector_baseI5PointSaIS0_EE17_M_create_storageEm, symObjAddr: 0x1C10, symBinAddr: 0x100002760, symSize: 0x60 }
  - { offsetInCU: 0x27D6E, offset: 0x27D6E, size: 0x8, addend: 0x0, symName: __ZN9__gnu_cxx17__normal_iteratorIPK5PointSt6vectorIS1_SaIS1_EEEC1ERKS3_, symObjAddr: 0x1C70, symBinAddr: 0x1000027C0, symSize: 0x28 }
  - { offsetInCU: 0x27E0F, offset: 0x27E0F, size: 0x8, addend: 0x0, symName: __ZNSt12_Vector_baseI5PointSaIS0_EE12_Vector_implC1ERKS1_, symObjAddr: 0x1BC4, symBinAddr: 0x100002714, symSize: 0x4C }
  - { offsetInCU: 0x27E17, offset: 0x27E17, size: 0x8, addend: 0x0, symName: __ZNSt12_Vector_baseI5PointSaIS0_EE17_M_create_storageEm, symObjAddr: 0x1C10, symBinAddr: 0x100002760, symSize: 0x60 }
  - { offsetInCU: 0x27F56, offset: 0x27F56, size: 0x8, addend: 0x0, symName: __ZSt22__final_insertion_sortIN9__gnu_cxx17__normal_iteratorIP5PointSt6vectorIS2_SaIS2_EEEENS0_5__ops15_Iter_comp_iterIZ13compute_stripS6_RdEUlS2_S2_E_EEEvT_SD_T0_, symObjAddr: 0x1B38, symBinAddr: 0x100002688, symSize: 0x8C }
  - { offsetInCU: 0x27F5E, offset: 0x27F5E, size: 0x8, addend: 0x0, symName: __ZNSt12_Vector_baseI5PointSaIS0_EE12_Vector_implC1ERKS1_, symObjAddr: 0x1BC4, symBinAddr: 0x100002714, symSize: 0x4C }
  - { offsetInCU: 0x27FCF, offset: 0x27FCF, size: 0x8, addend: 0x0, symName: __ZSt16__introsort_loopIN9__gnu_cxx17__normal_iteratorIP5PointSt6vectorIS2_SaIS2_EEEElNS0_5__ops15_Iter_comp_iterIZ13compute_stripS6_RdEUlS2_S2_E_EEEvT_SD_T0_T1_, symObjAddr: 0x1A90, symBinAddr: 0x1000025E0, symSize: 0xA8 }
  - { offsetInCU: 0x27FD7, offset: 0x27FD7, size: 0x8, addend: 0x0, symName: __ZSt22__final_insertion_sortIN9__gnu_cxx17__normal_iteratorIP5PointSt6vectorIS2_SaIS2_EEEENS0_5__ops15_Iter_comp_iterIZ13compute_stripS6_RdEUlS2_S2_E_EEEvT_SD_T0_, symObjAddr: 0x1B38, symBinAddr: 0x100002688, symSize: 0x8C }
  - { offsetInCU: 0x27FF3, offset: 0x27FF3, size: 0x8, addend: 0x0, symName: __ZSt4__lgIlET_S0_, symObjAddr: 0x1A6C, symBinAddr: 0x1000025BC, symSize: 0x24 }
  - { offsetInCU: 0x27FFB, offset: 0x27FFB, size: 0x8, addend: 0x0, symName: __ZSt16__introsort_loopIN9__gnu_cxx17__normal_iteratorIP5PointSt6vectorIS2_SaIS2_EEEElNS0_5__ops15_Iter_comp_iterIZ13compute_stripS6_RdEUlS2_S2_E_EEEvT_SD_T0_T1_, symObjAddr: 0x1A90, symBinAddr: 0x1000025E0, symSize: 0xA8 }
  - { offsetInCU: 0x28047, offset: 0x28047, size: 0x8, addend: 0x0, symName: __ZN9__gnu_cxx5__ops15_Iter_comp_iterIZ13compute_stripSt6vectorI5PointSaIS3_EERdEUlS3_S3_E_EC1ES7_, symObjAddr: 0x1A48, symBinAddr: 0x100002598, symSize: 0x24 }
  - { offsetInCU: 0x2804F, offset: 0x2804F, size: 0x8, addend: 0x0, symName: __ZSt4__lgIlET_S0_, symObjAddr: 0x1A6C, symBinAddr: 0x1000025BC, symSize: 0x24 }
  - { offsetInCU: 0x280CD, offset: 0x280CD, size: 0x8, addend: 0x0, symName: __ZSt4moveIRZ13compute_stripSt6vectorI5PointSaIS1_EERdEUlS1_S1_E_EONSt16remove_referenceIT_E4typeEOS8_, symObjAddr: 0x1A34, symBinAddr: 0x100002584, symSize: 0x14 }
  - { offsetInCU: 0x280D5, offset: 0x280D5, size: 0x8, addend: 0x0, symName: __ZN9__gnu_cxx5__ops15_Iter_comp_iterIZ13compute_stripSt6vectorI5PointSaIS3_EERdEUlS3_S3_E_EC1ES7_, symObjAddr: 0x1A48, symBinAddr: 0x100002598, symSize: 0x24 }
  - { offsetInCU: 0x28115, offset: 0x28115, size: 0x8, addend: 0x0, symName: __ZSt11__bit_widthImEiT_, symObjAddr: 0x1A04, symBinAddr: 0x100002554, symSize: 0x30 }
  - { offsetInCU: 0x2811D, offset: 0x2811D, size: 0x8, addend: 0x0, symName: __ZSt4moveIRZ13compute_stripSt6vectorI5PointSaIS1_EERdEUlS1_S1_E_EONSt16remove_referenceIT_E4typeEOS8_, symObjAddr: 0x1A34, symBinAddr: 0x100002584, symSize: 0x14 }
  - { offsetInCU: 0x2813A, offset: 0x2813A, size: 0x8, addend: 0x0, symName: __ZNSt6vectorI5PointSaIS0_EE17_M_realloc_insertIJRKS0_EEEvN9__gnu_cxx17__normal_iteratorIPS0_S2_EEDpOT_, symObjAddr: 0x1878, symBinAddr: 0x1000023C8, symSize: 0x18C }
  - { offsetInCU: 0x28142, offset: 0x28142, size: 0x8, addend: 0x0, symName: __ZSt11__bit_widthImEiT_, symObjAddr: 0x1A04, symBinAddr: 0x100002554, symSize: 0x30 }
  - { offsetInCU: 0x2825F, offset: 0x2825F, size: 0x8, addend: 0x0, symName: __ZNKSt6vectorI5PointSaIS0_EE12_M_check_lenEmPKc, symObjAddr: 0x17A8, symBinAddr: 0x1000022F8, symSize: 0xD0 }
  - { offsetInCU: 0x28267, offset: 0x28267, size: 0x8, addend: 0x0, symName: __ZNSt6vectorI5PointSaIS0_EE17_M_realloc_insertIJRKS0_EEEvN9__gnu_cxx17__normal_iteratorIPS0_S2_EEDpOT_, symObjAddr: 0x1878, symBinAddr: 0x1000023C8, symSize: 0x18C }
  - { offsetInCU: 0x28327, offset: 0x28327, size: 0x8, addend: 0x0, symName: __ZNSt12_Vector_baseI5PointSaIS0_EE13_M_deallocateEPS0_m, symObjAddr: 0x1718, symBinAddr: 0x100002268, symSize: 0x90 }
  - { offsetInCU: 0x2832F, offset: 0x2832F, size: 0x8, addend: 0x0, symName: __ZNKSt6vectorI5PointSaIS0_EE12_M_check_lenEmPKc, symObjAddr: 0x17A8, symBinAddr: 0x1000022F8, symSize: 0xD0 }
  - { offsetInCU: 0x284A0, offset: 0x284A0, size: 0x8, addend: 0x0, symName: __ZSt6__sortIN9__gnu_cxx17__normal_iteratorIP5PointSt6vectorIS2_SaIS2_EEEENS0_5__ops15_Iter_comp_iterIZ7closestS6_EUlS2_S2_E_EEEvT_SC_T0_, symObjAddr: 0x169C, symBinAddr: 0x1000021EC, symSize: 0x7C }
  - { offsetInCU: 0x284A8, offset: 0x284A8, size: 0x8, addend: 0x0, symName: __ZNSt12_Vector_baseI5PointSaIS0_EE13_M_deallocateEPS0_m, symObjAddr: 0x1718, symBinAddr: 0x100002268, symSize: 0x90 }
  - { offsetInCU: 0x284C4, offset: 0x284C4, size: 0x8, addend: 0x0, symName: __ZN9__gnu_cxx5__ops16__iter_comp_iterIZ7closestSt6vectorI5PointSaIS3_EEEUlS3_S3_E_EENS0_15_Iter_comp_iterIT_EES8_, symObjAddr: 0x1664, symBinAddr: 0x1000021B4, symSize: 0x38 }
  - { offsetInCU: 0x284CC, offset: 0x284CC, size: 0x8, addend: 0x0, symName: __ZSt6__sortIN9__gnu_cxx17__normal_iteratorIP5PointSt6vectorIS2_SaIS2_EEEENS0_5__ops15_Iter_comp_iterIZ7closestS6_EUlS2_S2_E_EEEvT_SC_T0_, symObjAddr: 0x169C, symBinAddr: 0x1000021EC, symSize: 0x7C }
  - { offsetInCU: 0x285FA, offset: 0x285FA, size: 0x8, addend: 0x0, symName: __ZSt22__uninitialized_copy_aIN9__gnu_cxx17__normal_iteratorIPK5PointSt6vectorIS2_SaIS2_EEEEPS2_S2_ET0_T_SB_SA_RSaIT1_E, symObjAddr: 0x1608, symBinAddr: 0x100002158, symSize: 0x5C }
  - { offsetInCU: 0x28602, offset: 0x28602, size: 0x8, addend: 0x0, symName: __ZN9__gnu_cxx5__ops16__iter_comp_iterIZ7closestSt6vectorI5PointSaIS3_EEEUlS3_S3_E_EENS0_15_Iter_comp_iterIT_EES8_, symObjAddr: 0x1664, symBinAddr: 0x1000021B4, symSize: 0x38 }
  - { offsetInCU: 0x285B3, offset: 0x285B3, size: 0x8, addend: 0x0, symName: __ZNSt12_Vector_baseI5PointSaIS0_EE19_M_get_Tp_allocatorEv, symObjAddr: 0x15F4, symBinAddr: 0x100002144, symSize: 0x14 }
  - { offsetInCU: 0x285BB, offset: 0x285BB, size: 0x8, addend: 0x0, symName: __ZSt22__uninitialized_copy_aIN9__gnu_cxx17__normal_iteratorIPK5PointSt6vectorIS2_SaIS2_EEEEPS2_S2_ET0_T_SB_SA_RSaIT1_E, symObjAddr: 0x1608, symBinAddr: 0x100002158, symSize: 0x5C }
  - { offsetInCU: 0x285E3, offset: 0x285E3, size: 0x8, addend: 0x0, symName: __ZNKSt6vectorI5PointSaIS0_EE3endEv, symObjAddr: 0x15CC, symBinAddr: 0x10000211C, symSize: 0x28 }
  - { offsetInCU: 0x285EB, offset: 0x285EB, size: 0x8, addend: 0x0, symName: __ZNSt12_Vector_baseI5PointSaIS0_EE19_M_get_Tp_allocatorEv, symObjAddr: 0x15F4, symBinAddr: 0x100002144, symSize: 0x14 }
  - { offsetInCU: 0x28613, offset: 0x28613, size: 0x8, addend: 0x0, symName: __ZNKSt6vectorI5PointSaIS0_EE5beginEv, symObjAddr: 0x15A8, symBinAddr: 0x1000020F8, symSize: 0x24 }
  - { offsetInCU: 0x2861B, offset: 0x2861B, size: 0x8, addend: 0x0, symName: __ZNKSt6vectorI5PointSaIS0_EE3endEv, symObjAddr: 0x15CC, symBinAddr: 0x10000211C, symSize: 0x28 }
  - { offsetInCU: 0x286AE, offset: 0x286AE, size: 0x8, addend: 0x0, symName: __ZNSt12_Vector_baseI5PointSaIS0_EEC2EmRKS1_, symObjAddr: 0x1554, symBinAddr: 0x1000020A4, symSize: 0x54 }
  - { offsetInCU: 0x286B6, offset: 0x286B6, size: 0x8, addend: 0x0, symName: __ZNKSt6vectorI5PointSaIS0_EE5beginEv, symObjAddr: 0x15A8, symBinAddr: 0x1000020F8, symSize: 0x24 }
  - { offsetInCU: 0x286E9, offset: 0x286E9, size: 0x8, addend: 0x0, symName: __ZNKSt12_Vector_baseI5PointSaIS0_EE19_M_get_Tp_allocatorEv, symObjAddr: 0x1540, symBinAddr: 0x100002090, symSize: 0x14 }
  - { offsetInCU: 0x286F1, offset: 0x286F1, size: 0x8, addend: 0x0, symName: __ZNSt12_Vector_baseI5PointSaIS0_EEC2EmRKS1_, symObjAddr: 0x1554, symBinAddr: 0x1000020A4, symSize: 0x54 }
  - { offsetInCU: 0x287C4, offset: 0x287C4, size: 0x8, addend: 0x0, symName: __ZSt6__sortIN9__gnu_cxx17__normal_iteratorIP5PointSt6vectorIS2_SaIS2_EEEENS0_5__ops15_Iter_comp_iterIZ13compute_stripS6_RdEUlS2_S2_E_EEEvT_SD_T0_, symObjAddr: 0x14C4, symBinAddr: 0x100002014, symSize: 0x7C }
  - { offsetInCU: 0x287CC, offset: 0x287CC, size: 0x8, addend: 0x0, symName: __ZNKSt12_Vector_baseI5PointSaIS0_EE19_M_get_Tp_allocatorEv, symObjAddr: 0x1540, symBinAddr: 0x100002090, symSize: 0x14 }
  - { offsetInCU: 0x28820, offset: 0x28820, size: 0x8, addend: 0x0, symName: __ZN9__gnu_cxxmiIP5PointSt6vectorIS1_SaIS1_EEEENS_17__normal_iteratorIT_T0_E15difference_typeERKS9_SC_, symObjAddr: 0x1484, symBinAddr: 0x100001FD4, symSize: 0x40 }
  - { offsetInCU: 0x28828, offset: 0x28828, size: 0x8, addend: 0x0, symName: __ZSt6__sortIN9__gnu_cxx17__normal_iteratorIP5PointSt6vectorIS2_SaIS2_EEEENS0_5__ops15_Iter_comp_iterIZ13compute_stripS6_RdEUlS2_S2_E_EEEvT_SD_T0_, symObjAddr: 0x14C4, symBinAddr: 0x100002014, symSize: 0x7C }
  - { offsetInCU: 0x28856, offset: 0x28856, size: 0x8, addend: 0x0, symName: __ZN9__gnu_cxx5__ops16__iter_comp_iterIZ13compute_stripSt6vectorI5PointSaIS3_EERdEUlS3_S3_E_EENS0_15_Iter_comp_iterIT_EES9_, symObjAddr: 0x144C, symBinAddr: 0x100001F9C, symSize: 0x38 }
  - { offsetInCU: 0x2885E, offset: 0x2885E, size: 0x8, addend: 0x0, symName: __ZN9__gnu_cxxmiIP5PointSt6vectorIS1_SaIS1_EEEENS_17__normal_iteratorIT_T0_E15difference_typeERKS9_SC_, symObjAddr: 0x1484, symBinAddr: 0x100001FD4, symSize: 0x40 }
  - { offsetInCU: 0x288B6, offset: 0x288B6, size: 0x8, addend: 0x0, symName: __ZN9__gnu_cxx17__normal_iteratorIP5PointSt6vectorIS1_SaIS1_EEEC1ERKS2_, symObjAddr: 0x1424, symBinAddr: 0x100001F74, symSize: 0x28 }
  - { offsetInCU: 0x288BE, offset: 0x288BE, size: 0x8, addend: 0x0, symName: __ZN9__gnu_cxx5__ops16__iter_comp_iterIZ13compute_stripSt6vectorI5PointSaIS3_EERdEUlS3_S3_E_EENS0_15_Iter_comp_iterIT_EES9_, symObjAddr: 0x144C, symBinAddr: 0x100001F9C, symSize: 0x38 }
  - { offsetInCU: 0x288F8, offset: 0x288F8, size: 0x8, addend: 0x0, symName: __ZSt7forwardI5PointEOT_RNSt16remove_referenceIS1_E4typeE, symObjAddr: 0x1410, symBinAddr: 0x100001F60, symSize: 0x14 }
  - { offsetInCU: 0x28900, offset: 0x28900, size: 0x8, addend: 0x0, symName: __ZN9__gnu_cxx17__normal_iteratorIP5PointSt6vectorIS1_SaIS1_EEEC1ERKS2_, symObjAddr: 0x1424, symBinAddr: 0x100001F74, symSize: 0x28 }
  - { offsetInCU: 0x2894E, offset: 0x2894E, size: 0x8, addend: 0x0, symName: __ZSt7forwardIR5PointEOT_RNSt16remove_referenceIS2_E4typeE, symObjAddr: 0x13FC, symBinAddr: 0x100001F4C, symSize: 0x14 }
  - { offsetInCU: 0x28956, offset: 0x28956, size: 0x8, addend: 0x0, symName: __ZSt7forwardI5PointEOT_RNSt16remove_referenceIS1_E4typeE, symObjAddr: 0x1410, symBinAddr: 0x100001F60, symSize: 0x14 }
  - { offsetInCU: 0x28954, offset: 0x28954, size: 0x8, addend: 0x0, symName: __ZN9__gnu_cxx17__normal_iteratorIP5PointSt6vectorIS1_SaIS1_EEEppEv, symObjAddr: 0x13D4, symBinAddr: 0x100001F24, symSize: 0x28 }
  - { offsetInCU: 0x2895C, offset: 0x2895C, size: 0x8, addend: 0x0, symName: __ZSt7forwardIR5PointEOT_RNSt16remove_referenceIS2_E4typeE, symObjAddr: 0x13FC, symBinAddr: 0x100001F4C, symSize: 0x14 }
  - { offsetInCU: 0x28984, offset: 0x28984, size: 0x8, addend: 0x0, symName: __ZNSt4pairI5PointS0_EaSERKS1_, symObjAddr: 0x139C, symBinAddr: 0x100001EEC, symSize: 0x38 }
  - { offsetInCU: 0x2898C, offset: 0x2898C, size: 0x8, addend: 0x0, symName: __ZN9__gnu_cxx17__normal_iteratorIP5PointSt6vectorIS1_SaIS1_EEEppEv, symObjAddr: 0x13D4, symBinAddr: 0x100001F24, symSize: 0x28 }
  - { offsetInCU: 0x289C8, offset: 0x289C8, size: 0x8, addend: 0x0, symName: __ZNSt6vectorI5PointSaIS0_EE9push_backERKS0_, symObjAddr: 0x1304, symBinAddr: 0x100001E54, symSize: 0x98 }
  - { offsetInCU: 0x289D0, offset: 0x289D0, size: 0x8, addend: 0x0, symName: __ZNSt4pairI5PointS0_EaSERKS1_, symObjAddr: 0x139C, symBinAddr: 0x100001EEC, symSize: 0x38 }
  - { offsetInCU: 0x28A9F, offset: 0x28A9F, size: 0x8, addend: 0x0, symName: __ZNSt12_Vector_baseI5PointSaIS0_EED2Ev, symObjAddr: 0x12B4, symBinAddr: 0x100001E04, symSize: 0x50 }
  - { offsetInCU: 0x28AA7, offset: 0x28AA7, size: 0x8, addend: 0x0, symName: __ZNSt6vectorI5PointSaIS0_EE9push_backERKS0_, symObjAddr: 0x1304, symBinAddr: 0x100001E54, symSize: 0x98 }
  - { offsetInCU: 0x28B48, offset: 0x28B48, size: 0x8, addend: 0x0, symName: __ZSt4sortIN9__gnu_cxx17__normal_iteratorIP5PointSt6vectorIS2_SaIS2_EEEEZ7closestS6_EUlS2_S2_E_EvT_S9_T0_, symObjAddr: 0x1274, symBinAddr: 0x100001DC4, symSize: 0x40 }
  - { offsetInCU: 0x28B50, offset: 0x28B50, size: 0x8, addend: 0x0, symName: __ZNSt12_Vector_baseI5PointSaIS0_EED2Ev, symObjAddr: 0x12B4, symBinAddr: 0x100001E04, symSize: 0x50 }
  - { offsetInCU: 0x28B91, offset: 0x28B91, size: 0x8, addend: 0x0, symName: __ZNSt6vectorI5PointSaIS0_EED1Ev, symObjAddr: 0x1218, symBinAddr: 0x100001D68, symSize: 0x5C }
  - { offsetInCU: 0x28B99, offset: 0x28B99, size: 0x8, addend: 0x0, symName: __ZSt4sortIN9__gnu_cxx17__normal_iteratorIP5PointSt6vectorIS2_SaIS2_EEEEZ7closestS6_EUlS2_S2_E_EvT_S9_T0_, symObjAddr: 0x1274, symBinAddr: 0x100001DC4, symSize: 0x40 }
  - { offsetInCU: 0x28C34, offset: 0x28C34, size: 0x8, addend: 0x0, symName: __ZNSt6vectorI5PointSaIS0_EEC1ERKS2_, symObjAddr: 0x1124, symBinAddr: 0x100001C74, symSize: 0xF4 }
  - { offsetInCU: 0x28C3C, offset: 0x28C3C, size: 0x8, addend: 0x0, symName: __ZNSt6vectorI5PointSaIS0_EED1Ev, symObjAddr: 0x1218, symBinAddr: 0x100001D68, symSize: 0x5C }
  - { offsetInCU: 0x28DB3, offset: 0x28DB3, size: 0x8, addend: 0x0, symName: __ZSt4sortIN9__gnu_cxx17__normal_iteratorIP5PointSt6vectorIS2_SaIS2_EEEEZ13compute_stripS6_RdEUlS2_S2_E_EvT_SA_T0_, symObjAddr: 0x10E4, symBinAddr: 0x100001C34, symSize: 0x40 }
  - { offsetInCU: 0x28DBB, offset: 0x28DBB, size: 0x8, addend: 0x0, symName: __ZNSt6vectorI5PointSaIS0_EEC1ERKS2_, symObjAddr: 0x1124, symBinAddr: 0x100001C74, symSize: 0xF4 }
  - { offsetInCU: 0x28DA3, offset: 0x28DA3, size: 0x8, addend: 0x0, symName: __ZNSt6vectorI5PointSaIS0_EE3endEv, symObjAddr: 0x10BC, symBinAddr: 0x100001C0C, symSize: 0x28 }
  - { offsetInCU: 0x28DAB, offset: 0x28DAB, size: 0x8, addend: 0x0, symName: __ZSt4sortIN9__gnu_cxx17__normal_iteratorIP5PointSt6vectorIS2_SaIS2_EEEEZ13compute_stripS6_RdEUlS2_S2_E_EvT_SA_T0_, symObjAddr: 0x10E4, symBinAddr: 0x100001C34, symSize: 0x40 }
  - { offsetInCU: 0x28DD3, offset: 0x28DD3, size: 0x8, addend: 0x0, symName: __ZNSt6vectorI5PointSaIS0_EE5beginEv, symObjAddr: 0x1098, symBinAddr: 0x100001BE8, symSize: 0x24 }
  - { offsetInCU: 0x28DDB, offset: 0x28DDB, size: 0x8, addend: 0x0, symName: __ZNSt6vectorI5PointSaIS0_EE3endEv, symObjAddr: 0x10BC, symBinAddr: 0x100001C0C, symSize: 0x28 }
  - { offsetInCU: 0x28E03, offset: 0x28E03, size: 0x8, addend: 0x0, symName: __ZNSt4pairI5PointS0_EaSEOS1_, symObjAddr: 0x1050, symBinAddr: 0x100001BA0, symSize: 0x48 }
  - { offsetInCU: 0x28E0B, offset: 0x28E0B, size: 0x8, addend: 0x0, symName: __ZNSt6vectorI5PointSaIS0_EE5beginEv, symObjAddr: 0x1098, symBinAddr: 0x100001BE8, symSize: 0x24 }
  - { offsetInCU: 0x28EC9, offset: 0x28EC9, size: 0x8, addend: 0x0, symName: __ZNSt4pairI5PointS0_EC1IRS0_S3_EEOT_OT0_, symObjAddr: 0x1008, symBinAddr: 0x100001B58, symSize: 0x48 }
  - { offsetInCU: 0x28ED1, offset: 0x28ED1, size: 0x8, addend: 0x0, symName: __ZNSt4pairI5PointS0_EaSEOS1_, symObjAddr: 0x1050, symBinAddr: 0x100001BA0, symSize: 0x48 }
  - { offsetInCU: 0x28F04, offset: 0x28F04, size: 0x8, addend: 0x0, symName: __ZNSt6vectorI5PointSaIS0_EEixEm, symObjAddr: 0xFE0, symBinAddr: 0x100001B30, symSize: 0x28 }
  - { offsetInCU: 0x28F0C, offset: 0x28F0C, size: 0x8, addend: 0x0, symName: __ZNSt4pairI5PointS0_EC1IRS0_S3_EEOT_OT0_, symObjAddr: 0x1008, symBinAddr: 0x100001B58, symSize: 0x48 }
  - { offsetInCU: 0x2900E, offset: 0x2900E, size: 0x8, addend: 0x0, symName: __ZSt3powIdiEN9__gnu_cxx11__promote_2IDTplcvNS1_IT_XsrSt12__is_integerIS2_E7__valueEE6__typeELi0EcvNS1_IT0_XsrS3_IS7_E7__valueEE6__typeELi0EEXsrS3_ISB_E7__valueEE6__typeES2_S7_, symObjAddr: 0xFB4, symBinAddr: 0x100001B04, symSize: 0x2C }
  - { offsetInCU: 0x29016, offset: 0x29016, size: 0x8, addend: 0x0, symName: __ZNSt6vectorI5PointSaIS0_EEixEm, symObjAddr: 0xFE0, symBinAddr: 0x100001B30, symSize: 0x28 }
  - { offsetInCU: 0x28FF9, offset: 0x28FF9, size: 0x8, addend: 0x0, symName: __ZSt3maxImERKT_S2_S2_, symObjAddr: 0xF7C, symBinAddr: 0x100001ACC, symSize: 0x38 }
  - { offsetInCU: 0x29001, offset: 0x29001, size: 0x8, addend: 0x0, symName: __ZSt3powIdiEN9__gnu_cxx11__promote_2IDTplcvNS1_IT_XsrSt12__is_integerIS2_E7__valueEE6__typeELi0EcvNS1_IT0_XsrS3_IS7_E7__valueEE6__typeELi0EEXsrS3_ISB_E7__valueEE6__typeES2_S7_, symObjAddr: 0xFB4, symBinAddr: 0x100001B04, symSize: 0x2C }
  - { offsetInCU: 0x29032, offset: 0x29032, size: 0x8, addend: 0x0, symName: _main, symObjAddr: 0xC8C, symBinAddr: 0x1000017DC, symSize: 0x2F0 }
  - { offsetInCU: 0x2903A, offset: 0x2903A, size: 0x8, addend: 0x0, symName: __ZSt3maxImERKT_S2_S2_, symObjAddr: 0xF7C, symBinAddr: 0x100001ACC, symSize: 0x38 }
  - { offsetInCU: 0x2912D, offset: 0x2912D, size: 0x8, addend: 0x0, symName: __Z7closestSt6vectorI5PointSaIS0_EE, symObjAddr: 0x868, symBinAddr: 0x1000013B8, symSize: 0x424 }
  - { offsetInCU: 0x29135, offset: 0x29135, size: 0x8, addend: 0x0, symName: _main, symObjAddr: 0xC8C, symBinAddr: 0x1000017DC, symSize: 0x2F0 }
  - { offsetInCU: 0x291CC, offset: 0x291CC, size: 0x8, addend: 0x0, symName: __ZZ7closestSt6vectorI5PointSaIS0_EEENKUlS0_S0_E_clES0_S0_, symObjAddr: 0x750, symBinAddr: 0x1000012A0, symSize: 0x5C }
  - { offsetInCU: 0x291D4, offset: 0x291D4, size: 0x8, addend: 0x0, symName: __ZNSt12_Vector_baseI5PointSaIS0_EE12_Vector_implD1Ev, symObjAddr: 0x7AC, symBinAddr: 0x1000012FC, symSize: 0x20 }
  - { offsetInCU: 0x29364, offset: 0x29364, size: 0x8, addend: 0x0, symName: __ZNK9__gnu_cxx17__normal_iteratorIP5PointSt6vectorIS1_SaIS1_EEEdeEv, symObjAddr: 0x850, symBinAddr: 0x1000013A0, symSize: 0x18 }
  - { offsetInCU: 0x2936C, offset: 0x2936C, size: 0x8, addend: 0x0, symName: __Z7closestSt6vectorI5PointSaIS0_EE, symObjAddr: 0x868, symBinAddr: 0x1000013B8, symSize: 0x424 }
  - { offsetInCU: 0x29394, offset: 0x29394, size: 0x8, addend: 0x0, symName: __ZNK9__gnu_cxx17__normal_iteratorIP5PointSt6vectorIS1_SaIS1_EEE4baseEv, symObjAddr: 0x83C, symBinAddr: 0x10000138C, symSize: 0x14 }
  - { offsetInCU: 0x2939C, offset: 0x2939C, size: 0x8, addend: 0x0, symName: __ZNK9__gnu_cxx17__normal_iteratorIP5PointSt6vectorIS1_SaIS1_EEEdeEv, symObjAddr: 0x850, symBinAddr: 0x1000013A0, symSize: 0x18 }
  - { offsetInCU: 0x29444, offset: 0x29444, size: 0x8, addend: 0x0, symName: __ZN9__gnu_cxxeqIP5PointSt6vectorIS1_SaIS1_EEEEbRKNS_17__normal_iteratorIT_T0_EESB_, symObjAddr: 0x7F8, symBinAddr: 0x100001348, symSize: 0x44 }
  - { offsetInCU: 0x2944C, offset: 0x2944C, size: 0x8, addend: 0x0, symName: __ZNK9__gnu_cxx17__normal_iteratorIP5PointSt6vectorIS1_SaIS1_EEE4baseEv, symObjAddr: 0x83C, symBinAddr: 0x10000138C, symSize: 0x14 }
  - { offsetInCU: 0x29487, offset: 0x29487, size: 0x8, addend: 0x0, symName: __ZNSt12_Vector_baseI5PointSaIS0_EE17_Vector_impl_dataC2Ev, symObjAddr: 0x7CC, symBinAddr: 0x10000131C, symSize: 0x2C }
  - { offsetInCU: 0x2948F, offset: 0x2948F, size: 0x8, addend: 0x0, symName: __ZN9__gnu_cxxeqIP5PointSt6vectorIS1_SaIS1_EEEEbRKNS_17__normal_iteratorIT_T0_EESB_, symObjAddr: 0x7F8, symBinAddr: 0x100001348, symSize: 0x44 }
  - { offsetInCU: 0x294DF, offset: 0x294DF, size: 0x8, addend: 0x0, symName: __ZNSt12_Vector_baseI5PointSaIS0_EE12_Vector_implD1Ev, symObjAddr: 0x7AC, symBinAddr: 0x1000012FC, symSize: 0x20 }
  - { offsetInCU: 0x294E7, offset: 0x294E7, size: 0x8, addend: 0x0, symName: __ZNSt12_Vector_baseI5PointSaIS0_EE17_Vector_impl_dataC2Ev, symObjAddr: 0x7CC, symBinAddr: 0x10000131C, symSize: 0x2C }
  - { offsetInCU: 0x29540, offset: 0x29540, size: 0x8, addend: 0x0, symName: __Z13compute_stripSt6vectorI5PointSaIS0_EERd, symObjAddr: 0x534, symBinAddr: 0x100001084, symSize: 0x21C }
  - { offsetInCU: 0x29548, offset: 0x29548, size: 0x8, addend: 0x0, symName: __ZZ7closestSt6vectorI5PointSaIS0_EEENKUlS0_S0_E_clES0_S0_, symObjAddr: 0x750, symBinAddr: 0x1000012A0, symSize: 0x5C }
  - { offsetInCU: 0x295F8, offset: 0x295F8, size: 0x8, addend: 0x0, symName: __ZZ13compute_stripSt6vectorI5PointSaIS0_EERdENKUlS0_S0_E_clES0_S0_, symObjAddr: 0x4D8, symBinAddr: 0x100001028, symSize: 0x5C }
  - { offsetInCU: 0x29600, offset: 0x29600, size: 0x8, addend: 0x0, symName: __Z13compute_stripSt6vectorI5PointSaIS0_EERd, symObjAddr: 0x534, symBinAddr: 0x100001084, symSize: 0x21C }
  - { offsetInCU: 0x296A5, offset: 0x296A5, size: 0x8, addend: 0x0, symName: __ZNKSt6vectorI5PointSaIS0_EE4sizeEv, symObjAddr: 0x4B0, symBinAddr: 0x100001000, symSize: 0x28 }
  - { offsetInCU: 0x296AD, offset: 0x296AD, size: 0x8, addend: 0x0, symName: __ZZ13compute_stripSt6vectorI5PointSaIS0_EERdENKUlS0_S0_E_clES0_S0_, symObjAddr: 0x4D8, symBinAddr: 0x100001028, symSize: 0x5C }
  - { offsetInCU: 0x29700, offset: 0x29700, size: 0x8, addend: 0x0, symName: __Z5bruteSt6vectorI5PointSaIS0_EE, symObjAddr: 0x2E0, symBinAddr: 0x100000E30, symSize: 0x1D0 }
  - { offsetInCU: 0x29708, offset: 0x29708, size: 0x8, addend: 0x0, symName: __ZNKSt6vectorI5PointSaIS0_EE4sizeEv, symObjAddr: 0x4B0, symBinAddr: 0x100001000, symSize: 0x28 }
  - { offsetInCU: 0x297A0, offset: 0x297A0, size: 0x8, addend: 0x0, symName: __Z4dist5PointS_, symObjAddr: 0x25C, symBinAddr: 0x100000DAC, symSize: 0x84 }
  - { offsetInCU: 0x297A8, offset: 0x297A8, size: 0x8, addend: 0x0, symName: __Z5bruteSt6vectorI5PointSaIS0_EE, symObjAddr: 0x2E0, symBinAddr: 0x100000E30, symSize: 0x1D0 }
  - { offsetInCU: 0x297D7, offset: 0x297D7, size: 0x8, addend: 0x0, symName: __ZN5PointrsERSi, symObjAddr: 0x218, symBinAddr: 0x100000D68, symSize: 0x44 }
  - { offsetInCU: 0x297DF, offset: 0x297DF, size: 0x8, addend: 0x0, symName: __Z4dist5PointS_, symObjAddr: 0x25C, symBinAddr: 0x100000DAC, symSize: 0x84 }
  - { offsetInCU: 0x2983F, offset: 0x2983F, size: 0x8, addend: 0x0, symName: __ZSt12setprecisioni, symObjAddr: 0x204, symBinAddr: 0x100000D54, symSize: 0x14 }
  - { offsetInCU: 0x29847, offset: 0x29847, size: 0x8, addend: 0x0, symName: __ZN5PointrsERSi, symObjAddr: 0x218, symBinAddr: 0x100000D68, symSize: 0x44 }
  - { offsetInCU: 0x29879, offset: 0x29879, size: 0x8, addend: 0x0, symName: __ZSt5fixedRSt8ios_base, symObjAddr: 0x1DC, symBinAddr: 0x100000D2C, symSize: 0x28 }
  - { offsetInCU: 0x29881, offset: 0x29881, size: 0x8, addend: 0x0, symName: __ZSt12setprecisioni, symObjAddr: 0x204, symBinAddr: 0x100000D54, symSize: 0x14 }
  - { offsetInCU: 0x298AA, offset: 0x298AA, size: 0x8, addend: 0x0, symName: __ZNSt8ios_base4setfESt13_Ios_FmtflagsS0_, symObjAddr: 0x17C, symBinAddr: 0x100000CCC, symSize: 0x60 }
  - { offsetInCU: 0x298B2, offset: 0x298B2, size: 0x8, addend: 0x0, symName: __ZSt5fixedRSt8ios_base, symObjAddr: 0x1DC, symBinAddr: 0x100000D2C, symSize: 0x28 }
  - { offsetInCU: 0x2993A, offset: 0x2993A, size: 0x8, addend: 0x0, symName: __ZStaNRSt13_Ios_FmtflagsS_, symObjAddr: 0x144, symBinAddr: 0x100000C94, symSize: 0x38 }
  - { offsetInCU: 0x29942, offset: 0x29942, size: 0x8, addend: 0x0, symName: __ZNSt8ios_base4setfESt13_Ios_FmtflagsS0_, symObjAddr: 0x17C, symBinAddr: 0x100000CCC, symSize: 0x60 }
  - { offsetInCU: 0x2999E, offset: 0x2999E, size: 0x8, addend: 0x0, symName: __ZStoRRSt13_Ios_FmtflagsS_, symObjAddr: 0x10C, symBinAddr: 0x100000C5C, symSize: 0x38 }
  - { offsetInCU: 0x299A6, offset: 0x299A6, size: 0x8, addend: 0x0, symName: __ZStaNRSt13_Ios_FmtflagsS_, symObjAddr: 0x144, symBinAddr: 0x100000C94, symSize: 0x38 }
  - { offsetInCU: 0x299EB, offset: 0x299EB, size: 0x8, addend: 0x0, symName: __ZStcoSt13_Ios_Fmtflags, symObjAddr: 0xF4, symBinAddr: 0x100000C44, symSize: 0x18 }
  - { offsetInCU: 0x299F3, offset: 0x299F3, size: 0x8, addend: 0x0, symName: __ZStoRRSt13_Ios_FmtflagsS_, symObjAddr: 0x10C, symBinAddr: 0x100000C5C, symSize: 0x38 }
  - { offsetInCU: 0x29A2F, offset: 0x29A2F, size: 0x8, addend: 0x0, symName: __ZStorSt13_Ios_FmtflagsS_, symObjAddr: 0xD4, symBinAddr: 0x100000C24, symSize: 0x20 }
  - { offsetInCU: 0x29A37, offset: 0x29A37, size: 0x8, addend: 0x0, symName: __ZStcoSt13_Ios_Fmtflags, symObjAddr: 0xF4, symBinAddr: 0x100000C44, symSize: 0x18 }
  - { offsetInCU: 0x29A7A, offset: 0x29A7A, size: 0x8, addend: 0x0, symName: __ZStanSt13_Ios_FmtflagsS_, symObjAddr: 0xB4, symBinAddr: 0x100000C04, symSize: 0x20 }
  - { offsetInCU: 0x29A82, offset: 0x29A82, size: 0x8, addend: 0x0, symName: __ZStorSt13_Ios_FmtflagsS_, symObjAddr: 0xD4, symBinAddr: 0x100000C24, symSize: 0x20 }
  - { offsetInCU: 0x29AD8, offset: 0x29AD8, size: 0x8, addend: 0x0, symName: __ZSt3minImERKT_S2_S2_, symObjAddr: 0x7C, symBinAddr: 0x100000BCC, symSize: 0x38 }
  - { offsetInCU: 0x29AE0, offset: 0x29AE0, size: 0x8, addend: 0x0, symName: __ZStanSt13_Ios_FmtflagsS_, symObjAddr: 0xB4, symBinAddr: 0x100000C04, symSize: 0x20 }
  - { offsetInCU: 0x29B15, offset: 0x29B15, size: 0x8, addend: 0x0, symName: __ZnwmPv, symObjAddr: 0x64, symBinAddr: 0x100000BB4, symSize: 0x18 }
  - { offsetInCU: 0x29B1D, offset: 0x29B1D, size: 0x8, addend: 0x0, symName: __ZSt3minImERKT_S2_S2_, symObjAddr: 0x7C, symBinAddr: 0x100000BCC, symSize: 0x38 }
  - { offsetInCU: 0x29B8E, offset: 0x29B8E, size: 0x8, addend: 0x0, symName: __ZStltSt15strong_orderingNSt9__cmp_cat8__unspecE, symObjAddr: 0x40, symBinAddr: 0x100000B90, symSize: 0x24 }
  - { offsetInCU: 0x29B96, offset: 0x29B96, size: 0x8, addend: 0x0, symName: __ZnwmPv, symObjAddr: 0x64, symBinAddr: 0x100000BB4, symSize: 0x18 }
  - { offsetInCU: 0x29BDF, offset: 0x29BDF, size: 0x8, addend: 0x0, symName: __ZNSt9__cmp_cat8__unspecC1EPS0_, symObjAddr: 0x28, symBinAddr: 0x100000B78, symSize: 0x18 }
  - { offsetInCU: 0x29BE7, offset: 0x29BE7, size: 0x8, addend: 0x0, symName: __ZStltSt15strong_orderingNSt9__cmp_cat8__unspecE, symObjAddr: 0x40, symBinAddr: 0x100000B90, symSize: 0x24 }
  - { offsetInCU: 0x29C35, offset: 0x29C35, size: 0x8, addend: 0x0, symName: __ZSt21is_constant_evaluatedv, symObjAddr: 0x20, symBinAddr: 0x100000B70, symSize: 0x8 }
  - { offsetInCU: 0x29C3D, offset: 0x29C3D, size: 0x8, addend: 0x0, symName: __ZNSt9__cmp_cat8__unspecC1EPS0_, symObjAddr: 0x28, symBinAddr: 0x100000B78, symSize: 0x18 }
  - { offsetInCU: 0x29C63, offset: 0x29C63, size: 0x8, addend: 0x0, symName: __ZSt23__is_constant_evaluatedv, symObjAddr: 0x0, symBinAddr: 0x100000B50, symSize: 0x8 }
  - { offsetInCU: 0x29C6B, offset: 0x29C6B, size: 0x8, addend: 0x0, symName: __ZSt3absd, symObjAddr: 0x8, symBinAddr: 0x100000B58, symSize: 0x18 }
...
