---
triple:          'arm64-apple-darwin'
binary-path:     'bin/treasurehunt'
relocations:
  - { offsetInCU: 0xB9, offset: 0xB9, size: 0x8, addend: 0x0, symName: __ZSt23__is_constant_evaluatedv, symObjAddr: 0x0, symBinAddr: 0x100002A20, symSize: 0x8 }
  - { offsetInCU: 0xC1, offset: 0xC1, size: 0x8, addend: 0x0, symName: __ZSt19piecewise_construct, symObjAddr: 0x71F0, symBinAddr: 0x10000AE74, symSize: 0x0 }
  - { offsetInCU: 0x1DD3, offset: 0x1DD3, size: 0x8, addend: 0x0, symName: __ZSt19piecewise_construct, symObjAddr: 0x71F0, symBinAddr: 0x10000AE74, symSize: 0x0 }
  - { offsetInCU: 0x23CEC, offset: 0x23CEC, size: 0x8, addend: 0x0, symName: __ZStL8__ioinit, symObjAddr: 0xF99B8, symBinAddr: 0x100014228, symSize: 0x0 }
  - { offsetInCU: 0x38128, offset: 0x38128, size: 0x8, addend: 0x0, symName: __ZNSt8__detail14__destructibleISt13_Bit_iteratorEE, symObjAddr: 0x71F1, symBinAddr: 0x10000AE75, symSize: 0x0 }
  - { offsetInCU: 0x38142, offset: 0x38142, size: 0x8, addend: 0x0, symName: __ZNSt8__detail19__destructible_implISt13_Bit_iteratorEE, symObjAddr: 0x71F2, symBinAddr: 0x10000AE76, symSize: 0x0 }
  - { offsetInCU: 0x384F4, offset: 0x384F4, size: 0x8, addend: 0x0, symName: __ZNSt8__detail14__destructibleISt19_Bit_const_iteratorEE, symObjAddr: 0x71F3, symBinAddr: 0x10000AE77, symSize: 0x0 }
  - { offsetInCU: 0x3850E, offset: 0x3850E, size: 0x8, addend: 0x0, symName: __ZNSt8__detail19__destructible_implISt19_Bit_const_iteratorEE, symObjAddr: 0x71F4, symBinAddr: 0x10000AE78, symSize: 0x0 }
  - { offsetInCU: 0x38AF2, offset: 0x38AF2, size: 0x8, addend: 0x0, symName: __ZNSt8__detail14__destructibleINSt8__format10_Sink_iterIcEEEE, symObjAddr: 0x71F5, symBinAddr: 0x10000AE79, symSize: 0x0 }
  - { offsetInCU: 0x38B0C, offset: 0x38B0C, size: 0x8, addend: 0x0, symName: __ZNSt8__detail19__destructible_implINSt8__format10_Sink_iterIcEEEE, symObjAddr: 0x71F6, symBinAddr: 0x10000AE7A, symSize: 0x0 }
  - { offsetInCU: 0x38C51, offset: 0x38C51, size: 0x8, addend: 0x0, symName: __ZNSt8__detail14__destructibleINSt8__format10_Sink_iterIwEEEE, symObjAddr: 0x71F7, symBinAddr: 0x10000AE7B, symSize: 0x0 }
  - { offsetInCU: 0x38C6B, offset: 0x38C6B, size: 0x8, addend: 0x0, symName: __ZNSt8__detail19__destructible_implINSt8__format10_Sink_iterIwEEEE, symObjAddr: 0x71F8, symBinAddr: 0x10000AE7C, symSize: 0x0 }
  - { offsetInCU: 0x38D82, offset: 0x38D82, size: 0x8, addend: 0x0, symName: __ZNSt8__detail14__destructibleIPcEE, symObjAddr: 0x71F9, symBinAddr: 0x10000AE7D, symSize: 0x0 }
  - { offsetInCU: 0x38D9C, offset: 0x38D9C, size: 0x8, addend: 0x0, symName: __ZNSt8__detail19__destructible_implIPcEE, symObjAddr: 0x71FA, symBinAddr: 0x10000AE7E, symSize: 0x0 }
  - { offsetInCU: 0x3914E, offset: 0x3914E, size: 0x8, addend: 0x0, symName: __ZNSt8__detail14__destructibleIPwEE, symObjAddr: 0x71FB, symBinAddr: 0x10000AE7F, symSize: 0x0 }
  - { offsetInCU: 0x39168, offset: 0x39168, size: 0x8, addend: 0x0, symName: __ZNSt8__detail19__destructible_implIPwEE, symObjAddr: 0x71FC, symBinAddr: 0x10000AE80, symSize: 0x0 }
  - { offsetInCU: 0x397F8, offset: 0x397F8, size: 0x8, addend: 0x0, symName: __ZNSt8__detail14__destructibleIiEE, symObjAddr: 0x71FD, symBinAddr: 0x10000AE81, symSize: 0x0 }
  - { offsetInCU: 0x39812, offset: 0x39812, size: 0x8, addend: 0x0, symName: __ZNSt8__detail19__destructible_implIiEE, symObjAddr: 0x71FE, symBinAddr: 0x10000AE82, symSize: 0x0 }
  - { offsetInCU: 0x39C06, offset: 0x39C06, size: 0x8, addend: 0x0, symName: __ZNSt8__detail30__integer_to_chars_is_unsignedIjEE, symObjAddr: 0x71FF, symBinAddr: 0x10000AE83, symSize: 0x0 }
  - { offsetInCU: 0x39C20, offset: 0x39C20, size: 0x8, addend: 0x0, symName: __ZNSt8__detail30__integer_to_chars_is_unsignedImEE, symObjAddr: 0x7200, symBinAddr: 0x10000AE84, symSize: 0x0 }
  - { offsetInCU: 0x39C3A, offset: 0x39C3A, size: 0x8, addend: 0x0, symName: __ZNSt8__detail30__integer_to_chars_is_unsignedIyEE, symObjAddr: 0x7201, symBinAddr: 0x10000AE85, symSize: 0x0 }
  - { offsetInCU: 0x39E78, offset: 0x39E78, size: 0x8, addend: 0x0, symName: __ZSt22__is_specialization_ofINSt7__cxx1112basic_stringIcSt11char_traitsIcESaIcEEES1_E, symObjAddr: 0x7202, symBinAddr: 0x10000AE86, symSize: 0x0 }
  - { offsetInCU: 0x39F05, offset: 0x39F05, size: 0x8, addend: 0x0, symName: __ZSt22__is_specialization_ofINSt7__cxx1112basic_stringIwSt11char_traitsIwESaIwEEES1_E, symObjAddr: 0x7203, symBinAddr: 0x10000AE87, symSize: 0x0 }
  - { offsetInCU: 0x3A04A, offset: 0x3A04A, size: 0x8, addend: 0x0, symName: __ZNSt8__detail14__destructibleImEE, symObjAddr: 0x7204, symBinAddr: 0x10000AE88, symSize: 0x0 }
  - { offsetInCU: 0x3A064, offset: 0x3A064, size: 0x8, addend: 0x0, symName: __ZNSt8__detail19__destructible_implImEE, symObjAddr: 0x7205, symBinAddr: 0x10000AE89, symSize: 0x0 }
  - { offsetInCU: 0x3A316, offset: 0x3A316, size: 0x8, addend: 0x0, symName: __ZNSt8__detail14__destructibleIPKcEE, symObjAddr: 0x7206, symBinAddr: 0x10000AE8A, symSize: 0x0 }
  - { offsetInCU: 0x3A330, offset: 0x3A330, size: 0x8, addend: 0x0, symName: __ZNSt8__detail19__destructible_implIPKcEE, symObjAddr: 0x7207, symBinAddr: 0x10000AE8B, symSize: 0x0 }
  - { offsetInCU: 0x3A5CE, offset: 0x3A5CE, size: 0x8, addend: 0x0, symName: __ZNSt8__detail14__destructibleIPKwEE, symObjAddr: 0x7208, symBinAddr: 0x10000AE8C, symSize: 0x0 }
  - { offsetInCU: 0x3A5E8, offset: 0x3A5E8, size: 0x8, addend: 0x0, symName: __ZNSt8__detail19__destructible_implIPKwEE, symObjAddr: 0x7209, symBinAddr: 0x10000AE8D, symSize: 0x0 }
  - { offsetInCU: 0x3B2D7, offset: 0x3B2D7, size: 0x8, addend: 0x0, symName: __ZNSt8__detail14__destructibleIN9__gnu_cxx17__normal_iteratorIPwSt4spanIwLm18446744073709551615EEEEEE, symObjAddr: 0x720A, symBinAddr: 0x10000AE8E, symSize: 0x0 }
  - { offsetInCU: 0x3B2F1, offset: 0x3B2F1, size: 0x8, addend: 0x0, symName: __ZNSt8__detail19__destructible_implIN9__gnu_cxx17__normal_iteratorIPwSt4spanIwLm18446744073709551615EEEEEE, symObjAddr: 0x720B, symBinAddr: 0x10000AE8F, symSize: 0x0 }
  - { offsetInCU: 0x3B886, offset: 0x3B886, size: 0x8, addend: 0x0, symName: __ZNSt8__detail14__destructibleIN9__gnu_cxx17__normal_iteratorIPcSt4spanIcLm18446744073709551615EEEEEE, symObjAddr: 0x720C, symBinAddr: 0x10000AE90, symSize: 0x0 }
  - { offsetInCU: 0x3B8A0, offset: 0x3B8A0, size: 0x8, addend: 0x0, symName: __ZNSt8__detail19__destructible_implIN9__gnu_cxx17__normal_iteratorIPcSt4spanIcLm18446744073709551615EEEEEE, symObjAddr: 0x720D, symBinAddr: 0x10000AE91, symSize: 0x0 }
  - { offsetInCU: 0x3BAB4, offset: 0x3BAB4, size: 0x8, addend: 0x0, symName: __ZNSt8__detail14__destructibleIjEE, symObjAddr: 0x720E, symBinAddr: 0x10000AE92, symSize: 0x0 }
  - { offsetInCU: 0x3BACE, offset: 0x3BACE, size: 0x8, addend: 0x0, symName: __ZNSt8__detail19__destructible_implIjEE, symObjAddr: 0x720F, symBinAddr: 0x10000AE93, symSize: 0x0 }
  - { offsetInCU: 0x3BC9D, offset: 0x3BC9D, size: 0x8, addend: 0x0, symName: __ZNSt8__detail14__destructibleIlEE, symObjAddr: 0x7210, symBinAddr: 0x10000AE94, symSize: 0x0 }
  - { offsetInCU: 0x3BCB7, offset: 0x3BCB7, size: 0x8, addend: 0x0, symName: __ZNSt8__detail19__destructible_implIlEE, symObjAddr: 0x7211, symBinAddr: 0x10000AE95, symSize: 0x0 }
  - { offsetInCU: 0x3C379, offset: 0x3C379, size: 0x8, addend: 0x0, symName: __ZNSt8__detail30__integer_to_chars_is_unsignedIoEE, symObjAddr: 0x7212, symBinAddr: 0x10000AE96, symSize: 0x0 }
  - { offsetInCU: 0x3C3A8, offset: 0x3C3A8, size: 0x8, addend: 0x0, symName: __GLOBAL__sub_I_treasurehunt.cpp, symObjAddr: 0x71DC, symBinAddr: 0x100009BFC, symSize: 0x14 }
  - { offsetInCU: 0x3C3B0, offset: 0x3C3B0, size: 0x8, addend: 0x0, symName: __ZSt19piecewise_construct, symObjAddr: 0x71F0, symBinAddr: 0x10000AE74, symSize: 0x0 }
  - { offsetInCU: 0x3C3CD, offset: 0x3C3CD, size: 0x8, addend: 0x0, symName: __Z41__static_initialization_and_destruction_0v, symObjAddr: 0x71A0, symBinAddr: 0x100009BC0, symSize: 0x3C }
  - { offsetInCU: 0x3C3D5, offset: 0x3C3D5, size: 0x8, addend: 0x0, symName: __GLOBAL__sub_I_treasurehunt.cpp, symObjAddr: 0x71DC, symBinAddr: 0x100009BFC, symSize: 0x14 }
  - { offsetInCU: 0x3C48A, offset: 0x3C48A, size: 0x8, addend: 0x0, symName: __ZSt12construct_atISt4pairIKcS0_IiiEEJRS1_RKS2_EEDTgsnwcvPvLi0E_T_pispcl7declvalIT0_EEEEPS8_DpOS9_, symObjAddr: 0x7140, symBinAddr: 0x100009B60, symSize: 0x60 }
  - { offsetInCU: 0x3C492, offset: 0x3C492, size: 0x8, addend: 0x0, symName: __Z41__static_initialization_and_destruction_0v, symObjAddr: 0x71A0, symBinAddr: 0x100009BC0, symSize: 0x3C }
  - { offsetInCU: 0x3C444, offset: 0x3C444, size: 0x8, addend: 0x0, symName: __ZNSt11__copy_moveILb0ELb0ESt26random_access_iterator_tagE12__assign_oneIccEEvPT_PT0_, symObjAddr: 0x7118, symBinAddr: 0x100009B38, symSize: 0x28 }
  - { offsetInCU: 0x3C44C, offset: 0x3C44C, size: 0x8, addend: 0x0, symName: __ZSt12construct_atISt4pairIKcS0_IiiEEJRS1_RKS2_EEDTgsnwcvPvLi0E_T_pispcl7declvalIT0_EEEEPS8_DpOS9_, symObjAddr: 0x7140, symBinAddr: 0x100009B60, symSize: 0x60 }
  - { offsetInCU: 0x3C4A7, offset: 0x3C4A7, size: 0x8, addend: 0x0, symName: __ZNSt11__copy_moveILb0ELb0ESt26random_access_iterator_tagE12__assign_oneIcKcEEvPT_PT0_, symObjAddr: 0x70F0, symBinAddr: 0x100009B10, symSize: 0x28 }
  - { offsetInCU: 0x3C4AF, offset: 0x3C4AF, size: 0x8, addend: 0x0, symName: __ZNSt11__copy_moveILb0ELb0ESt26random_access_iterator_tagE12__assign_oneIccEEvPT_PT0_, symObjAddr: 0x7118, symBinAddr: 0x100009B38, symSize: 0x28 }
  - { offsetInCU: 0x3C50A, offset: 0x3C50A, size: 0x8, addend: 0x0, symName: __ZNSt10_Head_baseILm0ERKcLb0EE7_M_headERS2_, symObjAddr: 0x70D8, symBinAddr: 0x100009AF8, symSize: 0x18 }
  - { offsetInCU: 0x3C512, offset: 0x3C512, size: 0x8, addend: 0x0, symName: __ZNSt11__copy_moveILb0ELb0ESt26random_access_iterator_tagE12__assign_oneIcKcEEvPT_PT0_, symObjAddr: 0x70F0, symBinAddr: 0x100009B10, symSize: 0x28 }
  - { offsetInCU: 0x3C53D, offset: 0x3C53D, size: 0x8, addend: 0x0, symName: __ZNSt11__copy_moveILb0ELb0ESt26random_access_iterator_tagE12__assign_oneIPSt4pairIiiES5_EEvPT_PT0_, symObjAddr: 0x70B0, symBinAddr: 0x100009AD0, symSize: 0x28 }
  - { offsetInCU: 0x3C545, offset: 0x3C545, size: 0x8, addend: 0x0, symName: __ZNSt10_Head_baseILm0ERKcLb0EE7_M_headERS2_, symObjAddr: 0x70D8, symBinAddr: 0x100009AF8, symSize: 0x18 }
  - { offsetInCU: 0x3C60E, offset: 0x3C60E, size: 0x8, addend: 0x0, symName: __ZNSt11__copy_moveILb0ELb1ESt26random_access_iterator_tagE8__copy_mIccEEPT0_PT_S6_S4_, symObjAddr: 0x702C, symBinAddr: 0x100009A4C, symSize: 0x84 }
  - { offsetInCU: 0x3C616, offset: 0x3C616, size: 0x8, addend: 0x0, symName: __ZNSt11__copy_moveILb0ELb0ESt26random_access_iterator_tagE12__assign_oneIPSt4pairIiiES5_EEvPT_PT0_, symObjAddr: 0x70B0, symBinAddr: 0x100009AD0, symSize: 0x28 }
  - { offsetInCU: 0x3C69B, offset: 0x3C69B, size: 0x8, addend: 0x0, symName: __ZNSt11__copy_moveILb0ELb0ESt26random_access_iterator_tagE8__copy_mIPcS3_EET0_T_S5_S4_, symObjAddr: 0x6FBC, symBinAddr: 0x1000099DC, symSize: 0x70 }
  - { offsetInCU: 0x3C6A3, offset: 0x3C6A3, size: 0x8, addend: 0x0, symName: __ZNSt11__copy_moveILb0ELb1ESt26random_access_iterator_tagE8__copy_mIccEEPT0_PT_S6_S4_, symObjAddr: 0x702C, symBinAddr: 0x100009A4C, symSize: 0x84 }
  - { offsetInCU: 0x3C74C, offset: 0x3C74C, size: 0x8, addend: 0x0, symName: __ZNSt11__copy_moveILb0ELb1ESt26random_access_iterator_tagE8__copy_mIKccEEPT0_PT_S7_S5_, symObjAddr: 0x6F38, symBinAddr: 0x100009958, symSize: 0x84 }
  - { offsetInCU: 0x3C754, offset: 0x3C754, size: 0x8, addend: 0x0, symName: __ZNSt11__copy_moveILb0ELb0ESt26random_access_iterator_tagE8__copy_mIPcS3_EET0_T_S5_S4_, symObjAddr: 0x6FBC, symBinAddr: 0x1000099DC, symSize: 0x70 }
  - { offsetInCU: 0x3C7D9, offset: 0x3C7D9, size: 0x8, addend: 0x0, symName: __ZNSt11__copy_moveILb0ELb0ESt26random_access_iterator_tagE8__copy_mIPKcPcEET0_T_S7_S6_, symObjAddr: 0x6EC8, symBinAddr: 0x1000098E8, symSize: 0x70 }
  - { offsetInCU: 0x3C7E1, offset: 0x3C7E1, size: 0x8, addend: 0x0, symName: __ZNSt11__copy_moveILb0ELb1ESt26random_access_iterator_tagE8__copy_mIKccEEPT0_PT_S7_S5_, symObjAddr: 0x6F38, symBinAddr: 0x100009958, symSize: 0x84 }
  - { offsetInCU: 0x3C88A, offset: 0x3C88A, size: 0x8, addend: 0x0, symName: __ZNSt11_Tuple_implILm0EJRKcEE7_M_headERS2_, symObjAddr: 0x6EAC, symBinAddr: 0x1000098CC, symSize: 0x1C }
  - { offsetInCU: 0x3C892, offset: 0x3C892, size: 0x8, addend: 0x0, symName: __ZNSt11__copy_moveILb0ELb0ESt26random_access_iterator_tagE8__copy_mIPKcPcEET0_T_S7_S6_, symObjAddr: 0x6EC8, symBinAddr: 0x1000098E8, symSize: 0x70 }
  - { offsetInCU: 0x3C8BE, offset: 0x3C8BE, size: 0x8, addend: 0x0, symName: __ZNSt20__copy_move_backwardILb0ELb1ESt26random_access_iterator_tagE13__copy_move_bIPSt4pairIiiES5_EEPT0_PT_S9_S7_, symObjAddr: 0x6E00, symBinAddr: 0x100009820, symSize: 0xAC }
  - { offsetInCU: 0x3C8C6, offset: 0x3C8C6, size: 0x8, addend: 0x0, symName: __ZNSt11_Tuple_implILm0EJRKcEE7_M_headERS2_, symObjAddr: 0x6EAC, symBinAddr: 0x1000098CC, symSize: 0x1C }
  - { offsetInCU: 0x3C94B, offset: 0x3C94B, size: 0x8, addend: 0x0, symName: __ZNSt20__copy_move_backwardILb0ELb0ESt26random_access_iterator_tagE13__copy_move_bIPPSt4pairIiiES6_EET0_T_S8_S7_, symObjAddr: 0x6D8C, symBinAddr: 0x1000097AC, symSize: 0x74 }
  - { offsetInCU: 0x3C953, offset: 0x3C953, size: 0x8, addend: 0x0, symName: __ZNSt20__copy_move_backwardILb0ELb1ESt26random_access_iterator_tagE13__copy_move_bIPSt4pairIiiES5_EEPT0_PT_S9_S7_, symObjAddr: 0x6E00, symBinAddr: 0x100009820, symSize: 0xAC }
  - { offsetInCU: 0x3C9D8, offset: 0x3C9D8, size: 0x8, addend: 0x0, symName: __ZNSt11__copy_moveILb0ELb1ESt26random_access_iterator_tagE8__copy_mIPSt4pairIiiES5_EEPT0_PT_S9_S7_, symObjAddr: 0x6CFC, symBinAddr: 0x10000971C, symSize: 0x90 }
  - { offsetInCU: 0x3C9E0, offset: 0x3C9E0, size: 0x8, addend: 0x0, symName: __ZNSt20__copy_move_backwardILb0ELb0ESt26random_access_iterator_tagE13__copy_move_bIPPSt4pairIiiES6_EET0_T_S8_S7_, symObjAddr: 0x6D8C, symBinAddr: 0x1000097AC, symSize: 0x74 }
  - { offsetInCU: 0x3CA65, offset: 0x3CA65, size: 0x8, addend: 0x0, symName: __ZNSt11__copy_moveILb0ELb0ESt26random_access_iterator_tagE8__copy_mIPPSt4pairIiiES6_EET0_T_S8_S7_, symObjAddr: 0x6C88, symBinAddr: 0x1000096A8, symSize: 0x74 }
  - { offsetInCU: 0x3CA6D, offset: 0x3CA6D, size: 0x8, addend: 0x0, symName: __ZNSt11__copy_moveILb0ELb1ESt26random_access_iterator_tagE8__copy_mIPSt4pairIiiES5_EEPT0_PT_S9_S7_, symObjAddr: 0x6CFC, symBinAddr: 0x10000971C, symSize: 0x90 }
  - { offsetInCU: 0x3CB16, offset: 0x3CB16, size: 0x8, addend: 0x0, symName: __ZNSt8__detail16_Hashtable_allocISaINS_10_Hash_nodeISt4pairIKcS2_IiiEELb0EEEEE16_M_allocate_nodeIJRS3_RKS4_EEEPS6_DpOT_, symObjAddr: 0x6B10, symBinAddr: 0x100009530, symSize: 0x178 }
  - { offsetInCU: 0x3CB1E, offset: 0x3CB1E, size: 0x8, addend: 0x0, symName: __ZNSt11__copy_moveILb0ELb0ESt26random_access_iterator_tagE8__copy_mIPPSt4pairIiiES6_EET0_T_S8_S7_, symObjAddr: 0x6C88, symBinAddr: 0x1000096A8, symSize: 0x74 }
  - { offsetInCU: 0x3CCD0, offset: 0x3CCD0, size: 0x8, addend: 0x0, symName: __ZSt7forwardIRKSt4pairIiiEEOT_RNSt16remove_referenceIS4_E4typeE, symObjAddr: 0x6AFC, symBinAddr: 0x10000951C, symSize: 0x14 }
  - { offsetInCU: 0x3CCD8, offset: 0x3CCD8, size: 0x8, addend: 0x0, symName: __ZNSt8__detail16_Hashtable_allocISaINS_10_Hash_nodeISt4pairIKcS2_IiiEELb0EEEEE16_M_allocate_nodeIJRS3_RKS4_EEEPS6_DpOT_, symObjAddr: 0x6B10, symBinAddr: 0x100009530, symSize: 0x178 }
  - { offsetInCU: 0x3CCBE, offset: 0x3CCBE, size: 0x8, addend: 0x0, symName: __ZNKSt8__detail15_Hashtable_baseIcSt4pairIKcS1_IiiEENS_10_Select1stESt8equal_toIcESt4hashIcENS_18_Mod_range_hashingENS_20_Default_ranged_hashENS_17_Hashtable_traitsILb0ELb0ELb1EEEE12_M_equals_trIcEEbRKT_mRKNS_16_Hash_node_valueIS4_Lb0EEE, symObjAddr: 0x6A94, symBinAddr: 0x1000094B4, symSize: 0x68 }
  - { offsetInCU: 0x3CCC6, offset: 0x3CCC6, size: 0x8, addend: 0x0, symName: __ZSt7forwardIRKSt4pairIiiEEOT_RNSt16remove_referenceIS4_E4typeE, symObjAddr: 0x6AFC, symBinAddr: 0x10000951C, symSize: 0x14 }
  - { offsetInCU: 0x3CDF8, offset: 0x3CDF8, size: 0x8, addend: 0x0, symName: __ZSt13__copy_move_aILb0EN9__gnu_cxx17__normal_iteratorIPKcSt6vectorIcSaIcEEEEPcET1_T0_SA_S9_, symObjAddr: 0x6A34, symBinAddr: 0x100009454, symSize: 0x60 }
  - { offsetInCU: 0x3CE00, offset: 0x3CE00, size: 0x8, addend: 0x0, symName: __ZNKSt8__detail15_Hashtable_baseIcSt4pairIKcS1_IiiEENS_10_Select1stESt8equal_toIcESt4hashIcENS_18_Mod_range_hashingENS_20_Default_ranged_hashENS_17_Hashtable_traitsILb0ELb0ELb1EEEE12_M_equals_trIcEEbRKT_mRKNS_16_Hash_node_valueIS4_Lb0EEE, symObjAddr: 0x6A94, symBinAddr: 0x1000094B4, symSize: 0x68 }
  - { offsetInCU: 0x3CE23, offset: 0x3CE23, size: 0x8, addend: 0x0, symName: __ZSt14__copy_move_a2ILb0EPcS0_ET1_T0_S2_S1_, symObjAddr: 0x69DC, symBinAddr: 0x1000093FC, symSize: 0x58 }
  - { offsetInCU: 0x3CE2B, offset: 0x3CE2B, size: 0x8, addend: 0x0, symName: __ZSt13__copy_move_aILb0EN9__gnu_cxx17__normal_iteratorIPKcSt6vectorIcSaIcEEEEPcET1_T0_SA_S9_, symObjAddr: 0x6A34, symBinAddr: 0x100009454, symSize: 0x60 }
  - { offsetInCU: 0x3CE61, offset: 0x3CE61, size: 0x8, addend: 0x0, symName: __ZNK9__gnu_cxx17__normal_iteratorIPcSt6vectorIcSaIcEEEdeEv, symObjAddr: 0x69C4, symBinAddr: 0x1000093E4, symSize: 0x18 }
  - { offsetInCU: 0x3CE69, offset: 0x3CE69, size: 0x8, addend: 0x0, symName: __ZSt14__copy_move_a2ILb0EPcS0_ET1_T0_S2_S1_, symObjAddr: 0x69DC, symBinAddr: 0x1000093FC, symSize: 0x58 }
  - { offsetInCU: 0x3CE92, offset: 0x3CE92, size: 0x8, addend: 0x0, symName: __ZN9__gnu_cxx17__normal_iteratorIPcSt6vectorIcSaIcEEEppEv, symObjAddr: 0x699C, symBinAddr: 0x1000093BC, symSize: 0x28 }
  - { offsetInCU: 0x3CE9A, offset: 0x3CE9A, size: 0x8, addend: 0x0, symName: __ZNK9__gnu_cxx17__normal_iteratorIPcSt6vectorIcSaIcEEEdeEv, symObjAddr: 0x69C4, symBinAddr: 0x1000093E4, symSize: 0x18 }
  - { offsetInCU: 0x3CEC3, offset: 0x3CEC3, size: 0x8, addend: 0x0, symName: __ZNK9__gnu_cxx17__normal_iteratorIPcSt6vectorIcSaIcEEEplEl, symObjAddr: 0x6960, symBinAddr: 0x100009380, symSize: 0x3C }
  - { offsetInCU: 0x3CECB, offset: 0x3CECB, size: 0x8, addend: 0x0, symName: __ZN9__gnu_cxx17__normal_iteratorIPcSt6vectorIcSaIcEEEppEv, symObjAddr: 0x699C, symBinAddr: 0x1000093BC, symSize: 0x28 }
  - { offsetInCU: 0x3CF64, offset: 0x3CF64, size: 0x8, addend: 0x0, symName: __ZSt14__copy_move_a2ILb0EPKcPcET1_T0_S4_S3_, symObjAddr: 0x6908, symBinAddr: 0x100009328, symSize: 0x58 }
  - { offsetInCU: 0x3CF6C, offset: 0x3CF6C, size: 0x8, addend: 0x0, symName: __ZNK9__gnu_cxx17__normal_iteratorIPcSt6vectorIcSaIcEEEplEl, symObjAddr: 0x6960, symBinAddr: 0x100009380, symSize: 0x3C }
  - { offsetInCU: 0x3D000, offset: 0x3D000, size: 0x8, addend: 0x0, symName: __ZSt12__get_helperILm0ERKcJEERT0_RSt11_Tuple_implIXT_EJS2_DpT1_EE, symObjAddr: 0x68EC, symBinAddr: 0x10000930C, symSize: 0x1C }
  - { offsetInCU: 0x3D008, offset: 0x3D008, size: 0x8, addend: 0x0, symName: __ZSt14__copy_move_a2ILb0EPKcPcET1_T0_S4_S3_, symObjAddr: 0x6908, symBinAddr: 0x100009328, symSize: 0x58 }
  - { offsetInCU: 0x3D002, offset: 0x3D002, size: 0x8, addend: 0x0, symName: __ZNK9__gnu_cxx16__aligned_bufferISt4pairIKcS1_IiiEEE7_M_addrEv, symObjAddr: 0x68D8, symBinAddr: 0x1000092F8, symSize: 0x14 }
  - { offsetInCU: 0x3D00A, offset: 0x3D00A, size: 0x8, addend: 0x0, symName: __ZSt12__get_helperILm0ERKcJEERT0_RSt11_Tuple_implIXT_EJS2_DpT1_EE, symObjAddr: 0x68EC, symBinAddr: 0x10000930C, symSize: 0x1C }
  - { offsetInCU: 0x3D0C8, offset: 0x3D0C8, size: 0x8, addend: 0x0, symName: __ZSt23__copy_move_backward_a2ILb0EPPSt4pairIiiES3_ET1_T0_S5_S4_, symObjAddr: 0x6880, symBinAddr: 0x1000092A0, symSize: 0x58 }
  - { offsetInCU: 0x3D0D0, offset: 0x3D0D0, size: 0x8, addend: 0x0, symName: __ZNK9__gnu_cxx16__aligned_bufferISt4pairIKcS1_IiiEEE7_M_addrEv, symObjAddr: 0x68D8, symBinAddr: 0x1000092F8, symSize: 0x14 }
  - { offsetInCU: 0x3D149, offset: 0x3D149, size: 0x8, addend: 0x0, symName: __ZSt14__copy_move_a2ILb0EPPSt4pairIiiES3_ET1_T0_S5_S4_, symObjAddr: 0x6828, symBinAddr: 0x100009248, symSize: 0x58 }
  - { offsetInCU: 0x3D151, offset: 0x3D151, size: 0x8, addend: 0x0, symName: __ZSt23__copy_move_backward_a2ILb0EPPSt4pairIiiES3_ET1_T0_S5_S4_, symObjAddr: 0x6880, symBinAddr: 0x1000092A0, symSize: 0x58 }
  - { offsetInCU: 0x3D179, offset: 0x3D179, size: 0x8, addend: 0x0, symName: __ZNKSt8__detail10_AllocNodeISaINS_10_Hash_nodeISt4pairIKcS2_IiiEELb0EEEEEclIJRS3_RKS4_EEEPS6_DpOT_, symObjAddr: 0x67D8, symBinAddr: 0x1000091F8, symSize: 0x50 }
  - { offsetInCU: 0x3D181, offset: 0x3D181, size: 0x8, addend: 0x0, symName: __ZSt14__copy_move_a2ILb0EPPSt4pairIiiES3_ET1_T0_S5_S4_, symObjAddr: 0x6828, symBinAddr: 0x100009248, symSize: 0x58 }
  - { offsetInCU: 0x3D2B5, offset: 0x3D2B5, size: 0x8, addend: 0x0, symName: __ZSt7forwardINSt8__detail14_Node_iteratorISt4pairIKcS2_IiiEELb0ELb0EEEEOT_RNSt16remove_referenceIS7_E4typeE, symObjAddr: 0x67C4, symBinAddr: 0x1000091E4, symSize: 0x14 }
  - { offsetInCU: 0x3D2BD, offset: 0x3D2BD, size: 0x8, addend: 0x0, symName: __ZNKSt8__detail10_AllocNodeISaINS_10_Hash_nodeISt4pairIKcS2_IiiEELb0EEEEEclIJRS3_RKS4_EEEPS6_DpOT_, symObjAddr: 0x67D8, symBinAddr: 0x1000091F8, symSize: 0x50 }
  - { offsetInCU: 0x3D242, offset: 0x3D242, size: 0x8, addend: 0x0, symName: __ZNKSt10_HashtableIcSt4pairIKcS0_IiiEESaIS3_ENSt8__detail10_Select1stESt8equal_toIcESt4hashIcENS5_18_Mod_range_hashingENS5_20_Default_ranged_hashENS5_20_Prime_rehash_policyENS5_17_Hashtable_traitsILb0ELb0ELb1EEEE22_M_find_before_node_trIcEEPNS5_15_Hash_node_baseEmRKT_m, symObjAddr: 0x66C4, symBinAddr: 0x1000090E4, symSize: 0x100 }
  - { offsetInCU: 0x3D24A, offset: 0x3D24A, size: 0x8, addend: 0x0, symName: __ZSt7forwardINSt8__detail14_Node_iteratorISt4pairIKcS2_IiiEELb0ELb0EEEEOT_RNSt16remove_referenceIS7_E4typeE, symObjAddr: 0x67C4, symBinAddr: 0x1000091E4, symSize: 0x14 }
  - { offsetInCU: 0x3D3D0, offset: 0x3D3D0, size: 0x8, addend: 0x0, symName: __ZSt7forwardIRNSt8__detail14_Node_iteratorISt4pairIKcS2_IiiEELb0ELb0EEEEOT_RNSt16remove_referenceIS8_E4typeE, symObjAddr: 0x66B0, symBinAddr: 0x1000090D0, symSize: 0x14 }
  - { offsetInCU: 0x3D3D8, offset: 0x3D3D8, size: 0x8, addend: 0x0, symName: __ZNKSt10_HashtableIcSt4pairIKcS0_IiiEESaIS3_ENSt8__detail10_Select1stESt8equal_toIcESt4hashIcENS5_18_Mod_range_hashingENS5_20_Default_ranged_hashENS5_20_Prime_rehash_policyENS5_17_Hashtable_traitsILb0ELb0ELb1EEEE22_M_find_before_node_trIcEEPNS5_15_Hash_node_baseEmRKT_m, symObjAddr: 0x66C4, symBinAddr: 0x1000090E4, symSize: 0x100 }
  - { offsetInCU: 0x3D352, offset: 0x3D352, size: 0x8, addend: 0x0, symName: __ZNSt8__detail19_Node_iterator_baseISt4pairIKcS1_IiiEELb0EE7_M_incrEv, symObjAddr: 0x6680, symBinAddr: 0x1000090A0, symSize: 0x30 }
  - { offsetInCU: 0x3D35A, offset: 0x3D35A, size: 0x8, addend: 0x0, symName: __ZSt7forwardIRNSt8__detail14_Node_iteratorISt4pairIKcS2_IiiEELb0ELb0EEEEOT_RNSt16remove_referenceIS8_E4typeE, symObjAddr: 0x66B0, symBinAddr: 0x1000090D0, symSize: 0x14 }
  - { offsetInCU: 0x3D384, offset: 0x3D384, size: 0x8, addend: 0x0, symName: __ZNSt8__detail22_Hashtable_hash_traitsISt4hashIcEE22__small_size_thresholdEv, symObjAddr: 0x6678, symBinAddr: 0x100009098, symSize: 0x8 }
  - { offsetInCU: 0x3D38C, offset: 0x3D38C, size: 0x8, addend: 0x0, symName: __ZNSt8__detail19_Node_iterator_baseISt4pairIKcS1_IiiEELb0EE7_M_incrEv, symObjAddr: 0x6680, symBinAddr: 0x1000090A0, symSize: 0x30 }
  - { offsetInCU: 0x3D459, offset: 0x3D459, size: 0x8, addend: 0x0, symName: __ZSt4copyIN9__gnu_cxx17__normal_iteratorIPKcSt6vectorIcSaIcEEEEPcET0_T_SA_S9_, symObjAddr: 0x6630, symBinAddr: 0x100009050, symSize: 0x48 }
  - { offsetInCU: 0x3D461, offset: 0x3D461, size: 0x8, addend: 0x0, symName: __ZNSt8__detail22_Hashtable_hash_traitsISt4hashIcEE22__small_size_thresholdEv, symObjAddr: 0x6678, symBinAddr: 0x100009098, symSize: 0x8 }
  - { offsetInCU: 0x3D440, offset: 0x3D440, size: 0x8, addend: 0x0, symName: __ZNSt20__uninitialized_copyILb1EE13__uninit_copyIPcS2_EET0_T_S4_S3_, symObjAddr: 0x6604, symBinAddr: 0x100009024, symSize: 0x2C }
  - { offsetInCU: 0x3D448, offset: 0x3D448, size: 0x8, addend: 0x0, symName: __ZSt4copyIN9__gnu_cxx17__normal_iteratorIPKcSt6vectorIcSaIcEEEEPcET0_T_SA_S9_, symObjAddr: 0x6630, symBinAddr: 0x100009050, symSize: 0x48 }
  - { offsetInCU: 0x3D4EF, offset: 0x3D4EF, size: 0x8, addend: 0x0, symName: __ZSt10_ConstructIcJRcEEvPT_DpOT0_, symObjAddr: 0x6594, symBinAddr: 0x100008FB4, symSize: 0x70 }
  - { offsetInCU: 0x3D4F7, offset: 0x3D4F7, size: 0x8, addend: 0x0, symName: __ZNSt20__uninitialized_copyILb1EE13__uninit_copyIPcS2_EET0_T_S4_S3_, symObjAddr: 0x6604, symBinAddr: 0x100009024, symSize: 0x2C }
  - { offsetInCU: 0x3D555, offset: 0x3D555, size: 0x8, addend: 0x0, symName: __ZSt12__niter_wrapIPcET_RKS1_S1_, symObjAddr: 0x657C, symBinAddr: 0x100008F9C, symSize: 0x18 }
  - { offsetInCU: 0x3D55D, offset: 0x3D55D, size: 0x8, addend: 0x0, symName: __ZSt10_ConstructIcJRcEEvPT_DpOT0_, symObjAddr: 0x6594, symBinAddr: 0x100008FB4, symSize: 0x70 }
  - { offsetInCU: 0x3D5CB, offset: 0x3D5CB, size: 0x8, addend: 0x0, symName: __ZSt14__copy_move_a1ILb0EPcS0_ET1_T0_S2_S1_, symObjAddr: 0x6550, symBinAddr: 0x100008F70, symSize: 0x2C }
  - { offsetInCU: 0x3D5D3, offset: 0x3D5D3, size: 0x8, addend: 0x0, symName: __ZSt12__niter_wrapIPcET_RKS1_S1_, symObjAddr: 0x657C, symBinAddr: 0x100008F9C, symSize: 0x18 }
  - { offsetInCU: 0x3D63E, offset: 0x3D63E, size: 0x8, addend: 0x0, symName: __ZSt12__niter_baseIPcET_S1_, symObjAddr: 0x653C, symBinAddr: 0x100008F5C, symSize: 0x14 }
  - { offsetInCU: 0x3D646, offset: 0x3D646, size: 0x8, addend: 0x0, symName: __ZSt14__copy_move_a1ILb0EPcS0_ET1_T0_S2_S1_, symObjAddr: 0x6550, symBinAddr: 0x100008F70, symSize: 0x2C }
  - { offsetInCU: 0x3D657, offset: 0x3D657, size: 0x8, addend: 0x0, symName: __ZNSt12_Destroy_auxILb1EE9__destroyIN9__gnu_cxx17__normal_iteratorIPcSt6vectorIcSaIcEEEEEEvT_S9_, symObjAddr: 0x6524, symBinAddr: 0x100008F44, symSize: 0x18 }
  - { offsetInCU: 0x3D65F, offset: 0x3D65F, size: 0x8, addend: 0x0, symName: __ZSt12__niter_baseIPcET_S1_, symObjAddr: 0x653C, symBinAddr: 0x100008F5C, symSize: 0x14 }
  - { offsetInCU: 0x3D69D, offset: 0x3D69D, size: 0x8, addend: 0x0, symName: __ZNSt12_Destroy_auxILb0EE9__destroyIN9__gnu_cxx17__normal_iteratorIPcSt6vectorIcSaIcEEEEEEvT_S9_, symObjAddr: 0x64C4, symBinAddr: 0x100008EE4, symSize: 0x60 }
  - { offsetInCU: 0x3D6A5, offset: 0x3D6A5, size: 0x8, addend: 0x0, symName: __ZNSt12_Destroy_auxILb1EE9__destroyIN9__gnu_cxx17__normal_iteratorIPcSt6vectorIcSaIcEEEEEEvT_S9_, symObjAddr: 0x6524, symBinAddr: 0x100008F44, symSize: 0x18 }
  - { offsetInCU: 0x3D6F1, offset: 0x3D6F1, size: 0x8, addend: 0x0, symName: __ZNK9__gnu_cxx17__normal_iteratorIPcSt6vectorIcSaIcEEE4baseEv, symObjAddr: 0x64B0, symBinAddr: 0x100008ED0, symSize: 0x14 }
  - { offsetInCU: 0x3D6F9, offset: 0x3D6F9, size: 0x8, addend: 0x0, symName: __ZNSt12_Destroy_auxILb0EE9__destroyIN9__gnu_cxx17__normal_iteratorIPcSt6vectorIcSaIcEEEEEEvT_S9_, symObjAddr: 0x64C4, symBinAddr: 0x100008EE4, symSize: 0x60 }
  - { offsetInCU: 0x3D797, offset: 0x3D797, size: 0x8, addend: 0x0, symName: __ZN9__gnu_cxxeqIPcSt6vectorIcSaIcEEEEbRKNS_17__normal_iteratorIT_T0_EESA_, symObjAddr: 0x646C, symBinAddr: 0x100008E8C, symSize: 0x44 }
  - { offsetInCU: 0x3D79F, offset: 0x3D79F, size: 0x8, addend: 0x0, symName: __ZNK9__gnu_cxx17__normal_iteratorIPcSt6vectorIcSaIcEEE4baseEv, symObjAddr: 0x64B0, symBinAddr: 0x100008ED0, symSize: 0x14 }
  - { offsetInCU: 0x3D842, offset: 0x3D842, size: 0x8, addend: 0x0, symName: __ZSt12__niter_wrapIN9__gnu_cxx17__normal_iteratorIPcSt6vectorIcSaIcEEEES2_ET_S7_T0_, symObjAddr: 0x6438, symBinAddr: 0x100008E58, symSize: 0x34 }
  - { offsetInCU: 0x3D84A, offset: 0x3D84A, size: 0x8, addend: 0x0, symName: __ZN9__gnu_cxxeqIPcSt6vectorIcSaIcEEEEbRKNS_17__normal_iteratorIT_T0_EESA_, symObjAddr: 0x646C, symBinAddr: 0x100008E8C, symSize: 0x44 }
  - { offsetInCU: 0x3D867, offset: 0x3D867, size: 0x8, addend: 0x0, symName: __ZSt14__copy_move_a1ILb0EPKcPcET1_T0_S4_S3_, symObjAddr: 0x640C, symBinAddr: 0x100008E2C, symSize: 0x2C }
  - { offsetInCU: 0x3D86F, offset: 0x3D86F, size: 0x8, addend: 0x0, symName: __ZSt12__niter_wrapIN9__gnu_cxx17__normal_iteratorIPcSt6vectorIcSaIcEEEES2_ET_S7_T0_, symObjAddr: 0x6438, symBinAddr: 0x100008E58, symSize: 0x34 }
  - { offsetInCU: 0x3D91D, offset: 0x3D91D, size: 0x8, addend: 0x0, symName: __ZSt12__niter_baseIPcSt6vectorIcSaIcEEET_N9__gnu_cxx17__normal_iteratorIS4_T0_EE, symObjAddr: 0x63EC, symBinAddr: 0x100008E0C, symSize: 0x20 }
  - { offsetInCU: 0x3D925, offset: 0x3D925, size: 0x8, addend: 0x0, symName: __ZSt14__copy_move_a1ILb0EPKcPcET1_T0_S4_S3_, symObjAddr: 0x640C, symBinAddr: 0x100008E2C, symSize: 0x2C }
  - { offsetInCU: 0x3D97F, offset: 0x3D97F, size: 0x8, addend: 0x0, symName: __ZSt12__niter_baseIPKcSt6vectorIcSaIcEEET_N9__gnu_cxx17__normal_iteratorIS5_T0_EE, symObjAddr: 0x63CC, symBinAddr: 0x100008DEC, symSize: 0x20 }
  - { offsetInCU: 0x3D987, offset: 0x3D987, size: 0x8, addend: 0x0, symName: __ZSt12__niter_baseIPcSt6vectorIcSaIcEEET_N9__gnu_cxx17__normal_iteratorIS4_T0_EE, symObjAddr: 0x63EC, symBinAddr: 0x100008E0C, symSize: 0x20 }
  - { offsetInCU: 0x3D99E, offset: 0x3D99E, size: 0x8, addend: 0x0, symName: __ZNSt4pairIiiEC1Ev, symObjAddr: 0x63A8, symBinAddr: 0x100008DC8, symSize: 0x24 }
  - { offsetInCU: 0x3D9A6, offset: 0x3D9A6, size: 0x8, addend: 0x0, symName: __ZSt12__niter_baseIPKcSt6vectorIcSaIcEEET_N9__gnu_cxx17__normal_iteratorIS5_T0_EE, symObjAddr: 0x63CC, symBinAddr: 0x100008DEC, symSize: 0x20 }
  - { offsetInCU: 0x3DA1C, offset: 0x3DA1C, size: 0x8, addend: 0x0, symName: __ZSt3getILm0EJRKcEERNSt13tuple_elementIXT_ESt5tupleIJDpT0_EEE4typeERS6_, symObjAddr: 0x638C, symBinAddr: 0x100008DAC, symSize: 0x1C }
  - { offsetInCU: 0x3DA24, offset: 0x3DA24, size: 0x8, addend: 0x0, symName: __ZNSt4pairIiiEC1Ev, symObjAddr: 0x63A8, symBinAddr: 0x100008DC8, symSize: 0x24 }
  - { offsetInCU: 0x3DA19, offset: 0x3DA19, size: 0x8, addend: 0x0, symName: __ZNK9__gnu_cxx16__aligned_bufferISt4pairIKcS1_IiiEEE6_M_ptrEv, symObjAddr: 0x6370, symBinAddr: 0x100008D90, symSize: 0x1C }
  - { offsetInCU: 0x3DA21, offset: 0x3DA21, size: 0x8, addend: 0x0, symName: __ZSt3getILm0EJRKcEERNSt13tuple_elementIXT_ESt5tupleIJDpT0_EEE4typeERS6_, symObjAddr: 0x638C, symBinAddr: 0x100008DAC, symSize: 0x1C }
  - { offsetInCU: 0x3DADC, offset: 0x3DADC, size: 0x8, addend: 0x0, symName: __ZSt23__copy_move_backward_a1ILb0EPPSt4pairIiiES3_ET1_T0_S5_S4_, symObjAddr: 0x6344, symBinAddr: 0x100008D64, symSize: 0x2C }
  - { offsetInCU: 0x3DAE4, offset: 0x3DAE4, size: 0x8, addend: 0x0, symName: __ZNK9__gnu_cxx16__aligned_bufferISt4pairIKcS1_IiiEEE6_M_ptrEv, symObjAddr: 0x6370, symBinAddr: 0x100008D90, symSize: 0x1C }
  - { offsetInCU: 0x3DB32, offset: 0x3DB32, size: 0x8, addend: 0x0, symName: __ZSt12__niter_wrapIPPSt4pairIiiEET_RKS4_S4_, symObjAddr: 0x632C, symBinAddr: 0x100008D4C, symSize: 0x18 }
  - { offsetInCU: 0x3DB3A, offset: 0x3DB3A, size: 0x8, addend: 0x0, symName: __ZSt23__copy_move_backward_a1ILb0EPPSt4pairIiiES3_ET1_T0_S5_S4_, symObjAddr: 0x6344, symBinAddr: 0x100008D64, symSize: 0x2C }
  - { offsetInCU: 0x3DBB8, offset: 0x3DBB8, size: 0x8, addend: 0x0, symName: __ZSt14__copy_move_a1ILb0EPPSt4pairIiiES3_ET1_T0_S5_S4_, symObjAddr: 0x6300, symBinAddr: 0x100008D20, symSize: 0x2C }
  - { offsetInCU: 0x3DBC0, offset: 0x3DBC0, size: 0x8, addend: 0x0, symName: __ZSt12__niter_wrapIPPSt4pairIiiEET_RKS4_S4_, symObjAddr: 0x632C, symBinAddr: 0x100008D4C, symSize: 0x18 }
  - { offsetInCU: 0x3DC1B, offset: 0x3DC1B, size: 0x8, addend: 0x0, symName: __ZSt12__niter_baseIPPSt4pairIiiEET_S4_, symObjAddr: 0x62EC, symBinAddr: 0x100008D0C, symSize: 0x14 }
  - { offsetInCU: 0x3DC23, offset: 0x3DC23, size: 0x8, addend: 0x0, symName: __ZSt14__copy_move_a1ILb0EPPSt4pairIiiES3_ET1_T0_S5_S4_, symObjAddr: 0x6300, symBinAddr: 0x100008D20, symSize: 0x2C }
  - { offsetInCU: 0x3DD94, offset: 0x3DD94, size: 0x8, addend: 0x0, symName: __ZNSt10_HashtableIcSt4pairIKcS0_IiiEESaIS3_ENSt8__detail10_Select1stESt8equal_toIcESt4hashIcENS5_18_Mod_range_hashingENS5_20_Default_ranged_hashENS5_20_Prime_rehash_policyENS5_17_Hashtable_traitsILb0ELb0ELb1EEEE12_Scoped_nodeC1EPNS5_10_Hash_nodeIS3_Lb0EEEPNS5_16_Hashtable_allocISaISJ_EEE, symObjAddr: 0x62B8, symBinAddr: 0x100008CD8, symSize: 0x34 }
  - { offsetInCU: 0x3DD9C, offset: 0x3DD9C, size: 0x8, addend: 0x0, symName: __ZSt12__niter_baseIPPSt4pairIiiEET_S4_, symObjAddr: 0x62EC, symBinAddr: 0x100008D0C, symSize: 0x14 }
  - { offsetInCU: 0x3DCC7, offset: 0x3DCC7, size: 0x8, addend: 0x0, symName: __ZNSt8__detail12_NodeBuilderINS_10_Select1stEE8_S_buildIRKcRKSt4pairIS4_S6_IiiEENS_10_AllocNodeISaINS_10_Hash_nodeIS8_Lb0EEEEEEEEPNT1_11__node_typeEOT_OT0_RKSG_, symObjAddr: 0x626C, symBinAddr: 0x100008C8C, symSize: 0x4C }
  - { offsetInCU: 0x3DCCF, offset: 0x3DCCF, size: 0x8, addend: 0x0, symName: __ZNSt10_HashtableIcSt4pairIKcS0_IiiEESaIS3_ENSt8__detail10_Select1stESt8equal_toIcESt4hashIcENS5_18_Mod_range_hashingENS5_20_Default_ranged_hashENS5_20_Prime_rehash_policyENS5_17_Hashtable_traitsILb0ELb0ELb1EEEE12_Scoped_nodeC1EPNS5_10_Hash_nodeIS3_Lb0EEEPNS5_16_Hashtable_allocISaISJ_EEE, symObjAddr: 0x62B8, symBinAddr: 0x100008CD8, symSize: 0x34 }
  - { offsetInCU: 0x3DDF3, offset: 0x3DDF3, size: 0x8, addend: 0x0, symName: __ZNSt4pairINSt8__detail14_Node_iteratorIS_IKcS_IiiEELb0ELb0EEEbEC1IS5_bEEOT_OT0_, symObjAddr: 0x6220, symBinAddr: 0x100008C40, symSize: 0x4C }
  - { offsetInCU: 0x3DDFB, offset: 0x3DDFB, size: 0x8, addend: 0x0, symName: __ZNSt8__detail12_NodeBuilderINS_10_Select1stEE8_S_buildIRKcRKSt4pairIS4_S6_IiiEENS_10_AllocNodeISaINS_10_Hash_nodeIS8_Lb0EEEEEEEEPNT1_11__node_typeEOT_OT0_RKSG_, symObjAddr: 0x626C, symBinAddr: 0x100008C8C, symSize: 0x4C }
  - { offsetInCU: 0x3DE06, offset: 0x3DE06, size: 0x8, addend: 0x0, symName: __ZNKSt10_HashtableIcSt4pairIKcS0_IiiEESaIS3_ENSt8__detail10_Select1stESt8equal_toIcESt4hashIcENS5_18_Mod_range_hashingENS5_20_Default_ranged_hashENS5_20_Prime_rehash_policyENS5_17_Hashtable_traitsILb0ELb0ELb1EEEE15_M_find_node_trIcEEPNS5_10_Hash_nodeIS3_Lb0EEEmRKT_m, symObjAddr: 0x61CC, symBinAddr: 0x100008BEC, symSize: 0x54 }
  - { offsetInCU: 0x3DE0E, offset: 0x3DE0E, size: 0x8, addend: 0x0, symName: __ZNSt4pairINSt8__detail14_Node_iteratorIS_IKcS_IiiEELb0ELb0EEEbEC1IS5_bEEOT_OT0_, symObjAddr: 0x6220, symBinAddr: 0x100008C40, symSize: 0x4C }
  - { offsetInCU: 0x3DE98, offset: 0x3DE98, size: 0x8, addend: 0x0, symName: __ZNKSt8__detail15_Hash_code_baseIcSt4pairIKcS1_IiiEENS_10_Select1stESt4hashIcENS_18_Mod_range_hashingENS_20_Default_ranged_hashELb0EE15_M_hash_code_trIcEEmRKT_, symObjAddr: 0x6194, symBinAddr: 0x100008BB4, symSize: 0x38 }
  - { offsetInCU: 0x3DEA0, offset: 0x3DEA0, size: 0x8, addend: 0x0, symName: __ZNKSt10_HashtableIcSt4pairIKcS0_IiiEESaIS3_ENSt8__detail10_Select1stESt8equal_toIcESt4hashIcENS5_18_Mod_range_hashingENS5_20_Default_ranged_hashENS5_20_Prime_rehash_policyENS5_17_Hashtable_traitsILb0ELb0ELb1EEEE15_M_find_node_trIcEEPNS5_10_Hash_nodeIS3_Lb0EEEmRKT_m, symObjAddr: 0x61CC, symBinAddr: 0x100008BEC, symSize: 0x54 }
  - { offsetInCU: 0x3DF96, offset: 0x3DF96, size: 0x8, addend: 0x0, symName: __ZNSt4pairINSt8__detail14_Node_iteratorIS_IKcS_IiiEELb0ELb0EEEbEC1IRS5_bEEOT_OT0_, symObjAddr: 0x6148, symBinAddr: 0x100008B68, symSize: 0x4C }
  - { offsetInCU: 0x3DF9E, offset: 0x3DF9E, size: 0x8, addend: 0x0, symName: __ZNKSt8__detail15_Hash_code_baseIcSt4pairIKcS1_IiiEENS_10_Select1stESt4hashIcENS_18_Mod_range_hashingENS_20_Default_ranged_hashELb0EE15_M_hash_code_trIcEEmRKT_, symObjAddr: 0x6194, symBinAddr: 0x100008BB4, symSize: 0x38 }
  - { offsetInCU: 0x3DFA8, offset: 0x3DFA8, size: 0x8, addend: 0x0, symName: __ZNKSt8__detail15_Hashtable_baseIcSt4pairIKcS1_IiiEENS_10_Select1stESt8equal_toIcESt4hashIcENS_18_Mod_range_hashingENS_20_Default_ranged_hashENS_17_Hashtable_traitsILb0ELb0ELb1EEEE16_M_key_equals_trIcEEbRKT_RKNS_16_Hash_node_valueIS4_Lb0EEE, symObjAddr: 0x60F0, symBinAddr: 0x100008B10, symSize: 0x58 }
  - { offsetInCU: 0x3DFB0, offset: 0x3DFB0, size: 0x8, addend: 0x0, symName: __ZNSt4pairINSt8__detail14_Node_iteratorIS_IKcS_IiiEELb0ELb0EEEbEC1IRS5_bEEOT_OT0_, symObjAddr: 0x6148, symBinAddr: 0x100008B68, symSize: 0x4C }
  - { offsetInCU: 0x3E010, offset: 0x3E010, size: 0x8, addend: 0x0, symName: __ZNSt8__detail14_Node_iteratorISt4pairIKcS1_IiiEELb0ELb0EEppEv, symObjAddr: 0x60D0, symBinAddr: 0x100008AF0, symSize: 0x20 }
  - { offsetInCU: 0x3E018, offset: 0x3E018, size: 0x8, addend: 0x0, symName: __ZNKSt8__detail15_Hashtable_baseIcSt4pairIKcS1_IiiEENS_10_Select1stESt8equal_toIcESt4hashIcENS_18_Mod_range_hashingENS_20_Default_ranged_hashENS_17_Hashtable_traitsILb0ELb0ELb1EEEE16_M_key_equals_trIcEEbRKT_RKNS_16_Hash_node_valueIS4_Lb0EEE, symObjAddr: 0x60F0, symBinAddr: 0x100008B10, symSize: 0x58 }
  - { offsetInCU: 0x3E093, offset: 0x3E093, size: 0x8, addend: 0x0, symName: __ZNSt8__detaileqERKNS_19_Node_iterator_baseISt4pairIKcS1_IiiEELb0EEES7_, symObjAddr: 0x60A0, symBinAddr: 0x100008AC0, symSize: 0x30 }
  - { offsetInCU: 0x3E09B, offset: 0x3E09B, size: 0x8, addend: 0x0, symName: __ZNSt8__detail14_Node_iteratorISt4pairIKcS1_IiiEELb0ELb0EEppEv, symObjAddr: 0x60D0, symBinAddr: 0x100008AF0, symSize: 0x20 }
  - { offsetInCU: 0x3E0A1, offset: 0x3E0A1, size: 0x8, addend: 0x0, symName: __ZNSt10_HashtableIcSt4pairIKcS0_IiiEESaIS3_ENSt8__detail10_Select1stESt8equal_toIcESt4hashIcENS5_18_Mod_range_hashingENS5_20_Default_ranged_hashENS5_20_Prime_rehash_policyENS5_17_Hashtable_traitsILb0ELb0ELb1EEEE3endEv, symObjAddr: 0x607C, symBinAddr: 0x100008A9C, symSize: 0x24 }
  - { offsetInCU: 0x3E0A9, offset: 0x3E0A9, size: 0x8, addend: 0x0, symName: __ZNSt8__detaileqERKNS_19_Node_iterator_baseISt4pairIKcS1_IiiEELb0EEES7_, symObjAddr: 0x60A0, symBinAddr: 0x100008AC0, symSize: 0x30 }
  - { offsetInCU: 0x3E0D2, offset: 0x3E0D2, size: 0x8, addend: 0x0, symName: __ZNSt10_HashtableIcSt4pairIKcS0_IiiEESaIS3_ENSt8__detail10_Select1stESt8equal_toIcESt4hashIcENS5_18_Mod_range_hashingENS5_20_Default_ranged_hashENS5_20_Prime_rehash_policyENS5_17_Hashtable_traitsILb0ELb0ELb1EEEE5beginEv, symObjAddr: 0x6050, symBinAddr: 0x100008A70, symSize: 0x2C }
  - { offsetInCU: 0x3E0DA, offset: 0x3E0DA, size: 0x8, addend: 0x0, symName: __ZNSt10_HashtableIcSt4pairIKcS0_IiiEESaIS3_ENSt8__detail10_Select1stESt8equal_toIcESt4hashIcENS5_18_Mod_range_hashingENS5_20_Default_ranged_hashENS5_20_Prime_rehash_policyENS5_17_Hashtable_traitsILb0ELb0ELb1EEEE3endEv, symObjAddr: 0x607C, symBinAddr: 0x100008A9C, symSize: 0x24 }
  - { offsetInCU: 0x3E104, offset: 0x3E104, size: 0x8, addend: 0x0, symName: __ZNSt10_HashtableIcSt4pairIKcS0_IiiEESaIS3_ENSt8__detail10_Select1stESt8equal_toIcESt4hashIcENS5_18_Mod_range_hashingENS5_20_Default_ranged_hashENS5_20_Prime_rehash_policyENS5_17_Hashtable_traitsILb0ELb0ELb1EEEE22__small_size_thresholdEv, symObjAddr: 0x603C, symBinAddr: 0x100008A5C, symSize: 0x14 }
  - { offsetInCU: 0x3E10C, offset: 0x3E10C, size: 0x8, addend: 0x0, symName: __ZNSt10_HashtableIcSt4pairIKcS0_IiiEESaIS3_ENSt8__detail10_Select1stESt8equal_toIcESt4hashIcENS5_18_Mod_range_hashingENS5_20_Default_ranged_hashENS5_20_Prime_rehash_policyENS5_17_Hashtable_traitsILb0ELb0ELb1EEEE5beginEv, symObjAddr: 0x6050, symBinAddr: 0x100008A70, symSize: 0x2C }
  - { offsetInCU: 0x3E121, offset: 0x3E121, size: 0x8, addend: 0x0, symName: __ZNKSt10_HashtableIcSt4pairIKcS0_IiiEESaIS3_ENSt8__detail10_Select1stESt8equal_toIcESt4hashIcENS5_18_Mod_range_hashingENS5_20_Default_ranged_hashENS5_20_Prime_rehash_policyENS5_17_Hashtable_traitsILb0ELb0ELb1EEEE4sizeEv, symObjAddr: 0x6024, symBinAddr: 0x100008A44, symSize: 0x18 }
  - { offsetInCU: 0x3E129, offset: 0x3E129, size: 0x8, addend: 0x0, symName: __ZNSt10_HashtableIcSt4pairIKcS0_IiiEESaIS3_ENSt8__detail10_Select1stESt8equal_toIcESt4hashIcENS5_18_Mod_range_hashingENS5_20_Default_ranged_hashENS5_20_Prime_rehash_policyENS5_17_Hashtable_traitsILb0ELb0ELb1EEEE22__small_size_thresholdEv, symObjAddr: 0x603C, symBinAddr: 0x100008A5C, symSize: 0x14 }
  - { offsetInCU: 0x3E152, offset: 0x3E152, size: 0x8, addend: 0x0, symName: __ZNSt15__new_allocatorIPNSt8__detail15_Hash_node_baseEE8allocateEmPKv, symObjAddr: 0x5FA8, symBinAddr: 0x1000089C8, symSize: 0x7C }
  - { offsetInCU: 0x3E15A, offset: 0x3E15A, size: 0x8, addend: 0x0, symName: __ZNKSt10_HashtableIcSt4pairIKcS0_IiiEESaIS3_ENSt8__detail10_Select1stESt8equal_toIcESt4hashIcENS5_18_Mod_range_hashingENS5_20_Default_ranged_hashENS5_20_Prime_rehash_policyENS5_17_Hashtable_traitsILb0ELb0ELb1EEEE4sizeEv, symObjAddr: 0x6024, symBinAddr: 0x100008A44, symSize: 0x18 }
  - { offsetInCU: 0x3E267, offset: 0x3E267, size: 0x8, addend: 0x0, symName: __ZSt7forwardIRKSt4hashIcEEOT_RNSt16remove_referenceIS4_E4typeE, symObjAddr: 0x5F94, symBinAddr: 0x1000089B4, symSize: 0x14 }
  - { offsetInCU: 0x3E26F, offset: 0x3E26F, size: 0x8, addend: 0x0, symName: __ZNSt15__new_allocatorIPNSt8__detail15_Hash_node_baseEE8allocateEmPKv, symObjAddr: 0x5FA8, symBinAddr: 0x1000089C8, symSize: 0x7C }
  - { offsetInCU: 0x3E25A, offset: 0x3E25A, size: 0x8, addend: 0x0, symName: __ZNSt20__uninitialized_copyILb1EE13__uninit_copyIN9__gnu_cxx17__normal_iteratorIPKcSt6vectorIcSaIcEEEEPcEET0_T_SC_SB_, symObjAddr: 0x5F68, symBinAddr: 0x100008988, symSize: 0x2C }
  - { offsetInCU: 0x3E262, offset: 0x3E262, size: 0x8, addend: 0x0, symName: __ZSt7forwardIRKSt4hashIcEEOT_RNSt16remove_referenceIS4_E4typeE, symObjAddr: 0x5F94, symBinAddr: 0x1000089B4, symSize: 0x14 }
  - { offsetInCU: 0x3E2CF, offset: 0x3E2CF, size: 0x8, addend: 0x0, symName: __ZNK9__gnu_cxx17__normal_iteratorIPKcSt6vectorIcSaIcEEEdeEv, symObjAddr: 0x5F50, symBinAddr: 0x100008970, symSize: 0x18 }
  - { offsetInCU: 0x3E2D7, offset: 0x3E2D7, size: 0x8, addend: 0x0, symName: __ZNSt20__uninitialized_copyILb1EE13__uninit_copyIN9__gnu_cxx17__normal_iteratorIPKcSt6vectorIcSaIcEEEEPcEET0_T_SC_SB_, symObjAddr: 0x5F68, symBinAddr: 0x100008988, symSize: 0x2C }
  - { offsetInCU: 0x3E300, offset: 0x3E300, size: 0x8, addend: 0x0, symName: __ZN9__gnu_cxx17__normal_iteratorIPKcSt6vectorIcSaIcEEEppEv, symObjAddr: 0x5F28, symBinAddr: 0x100008948, symSize: 0x28 }
  - { offsetInCU: 0x3E308, offset: 0x3E308, size: 0x8, addend: 0x0, symName: __ZNK9__gnu_cxx17__normal_iteratorIPKcSt6vectorIcSaIcEEEdeEv, symObjAddr: 0x5F50, symBinAddr: 0x100008970, symSize: 0x18 }
  - { offsetInCU: 0x3E381, offset: 0x3E381, size: 0x8, addend: 0x0, symName: __ZSt18uninitialized_copyIPcS0_ET0_T_S2_S1_, symObjAddr: 0x5EEC, symBinAddr: 0x10000890C, symSize: 0x3C }
  - { offsetInCU: 0x3E389, offset: 0x3E389, size: 0x8, addend: 0x0, symName: __ZN9__gnu_cxx17__normal_iteratorIPKcSt6vectorIcSaIcEEEppEv, symObjAddr: 0x5F28, symBinAddr: 0x100008948, symSize: 0x28 }
  - { offsetInCU: 0x3E424, offset: 0x3E424, size: 0x8, addend: 0x0, symName: __ZSt16__do_uninit_copyIPcS0_ET0_T_S2_S1_, symObjAddr: 0x5E88, symBinAddr: 0x1000088A8, symSize: 0x64 }
  - { offsetInCU: 0x3E42C, offset: 0x3E42C, size: 0x8, addend: 0x0, symName: __ZSt18uninitialized_copyIPcS0_ET0_T_S2_S1_, symObjAddr: 0x5EEC, symBinAddr: 0x10000890C, symSize: 0x3C }
  - { offsetInCU: 0x3E4BF, offset: 0x3E4BF, size: 0x8, addend: 0x0, symName: __ZSt13__copy_move_aILb0EPcS0_ET1_T0_S2_S1_, symObjAddr: 0x5E28, symBinAddr: 0x100008848, symSize: 0x60 }
  - { offsetInCU: 0x3E4C7, offset: 0x3E4C7, size: 0x8, addend: 0x0, symName: __ZSt16__do_uninit_copyIPcS0_ET0_T_S2_S1_, symObjAddr: 0x5E88, symBinAddr: 0x1000088A8, symSize: 0x64 }
  - { offsetInCU: 0x3E534, offset: 0x3E534, size: 0x8, addend: 0x0, symName: __ZSt12__miter_baseIPcET_S1_, symObjAddr: 0x5E14, symBinAddr: 0x100008834, symSize: 0x14 }
  - { offsetInCU: 0x3E53C, offset: 0x3E53C, size: 0x8, addend: 0x0, symName: __ZSt13__copy_move_aILb0EPcS0_ET1_T0_S2_S1_, symObjAddr: 0x5E28, symBinAddr: 0x100008848, symSize: 0x60 }
  - { offsetInCU: 0x3E5DA, offset: 0x3E5DA, size: 0x8, addend: 0x0, symName: __ZSt8_DestroyIN9__gnu_cxx17__normal_iteratorIPcSt6vectorIcSaIcEEEEEvT_S7_, symObjAddr: 0x5DCC, symBinAddr: 0x1000087EC, symSize: 0x48 }
  - { offsetInCU: 0x3E5E2, offset: 0x3E5E2, size: 0x8, addend: 0x0, symName: __ZSt12__miter_baseIPcET_S1_, symObjAddr: 0x5E14, symBinAddr: 0x100008834, symSize: 0x14 }
  - { offsetInCU: 0x3E69F, offset: 0x3E69F, size: 0x8, addend: 0x0, symName: __ZSt13__copy_move_aILb0EN9__gnu_cxx17__normal_iteratorIPKcSt6vectorIcSaIcEEEENS1_IPcS6_EEET1_T0_SB_SA_, symObjAddr: 0x5D6C, symBinAddr: 0x10000878C, symSize: 0x60 }
  - { offsetInCU: 0x3E6A7, offset: 0x3E6A7, size: 0x8, addend: 0x0, symName: __ZSt8_DestroyIN9__gnu_cxx17__normal_iteratorIPcSt6vectorIcSaIcEEEEEvT_S7_, symObjAddr: 0x5DCC, symBinAddr: 0x1000087EC, symSize: 0x48 }
  - { offsetInCU: 0x3E6D9, offset: 0x3E6D9, size: 0x8, addend: 0x0, symName: __ZSt12__miter_baseIN9__gnu_cxx17__normal_iteratorIPKcSt6vectorIcSaIcEEEEET_S8_, symObjAddr: 0x5D58, symBinAddr: 0x100008778, symSize: 0x14 }
  - { offsetInCU: 0x3E6E1, offset: 0x3E6E1, size: 0x8, addend: 0x0, symName: __ZSt13__copy_move_aILb0EN9__gnu_cxx17__normal_iteratorIPKcSt6vectorIcSaIcEEEENS1_IPcS6_EEET1_T0_SB_SA_, symObjAddr: 0x5D6C, symBinAddr: 0x10000878C, symSize: 0x60 }
  - { offsetInCU: 0x3E6F1, offset: 0x3E6F1, size: 0x8, addend: 0x0, symName: __ZN9__gnu_cxx17__normal_iteratorIPcSt6vectorIcSaIcEEEC1ERKS1_, symObjAddr: 0x5D30, symBinAddr: 0x100008750, symSize: 0x28 }
  - { offsetInCU: 0x3E6F9, offset: 0x3E6F9, size: 0x8, addend: 0x0, symName: __ZSt12__miter_baseIN9__gnu_cxx17__normal_iteratorIPKcSt6vectorIcSaIcEEEEET_S8_, symObjAddr: 0x5D58, symBinAddr: 0x100008778, symSize: 0x14 }
  - { offsetInCU: 0x3E6F0, offset: 0x3E6F0, size: 0x8, addend: 0x0, symName: __ZNSt6vectorIcSaIcEE15_M_erase_at_endEPc, symObjAddr: 0x5CAC, symBinAddr: 0x1000086CC, symSize: 0x84 }
  - { offsetInCU: 0x3E6F8, offset: 0x3E6F8, size: 0x8, addend: 0x0, symName: __ZN9__gnu_cxx17__normal_iteratorIPcSt6vectorIcSaIcEEEC1ERKS1_, symObjAddr: 0x5D30, symBinAddr: 0x100008750, symSize: 0x28 }
  - { offsetInCU: 0x3E7A0, offset: 0x3E7A0, size: 0x8, addend: 0x0, symName: __ZNSt15__new_allocatorISt6vectorIcSaIcEEE8allocateEmPKv, symObjAddr: 0x5C1C, symBinAddr: 0x10000863C, symSize: 0x90 }
  - { offsetInCU: 0x3E7A8, offset: 0x3E7A8, size: 0x8, addend: 0x0, symName: __ZNSt6vectorIcSaIcEE15_M_erase_at_endEPc, symObjAddr: 0x5CAC, symBinAddr: 0x1000086CC, symSize: 0x84 }
  - { offsetInCU: 0x3E89D, offset: 0x3E89D, size: 0x8, addend: 0x0, symName: __ZSt9__fill_a1IcEN9__gnu_cxx11__enable_ifIXsrSt9__is_byteIT_E7__valueEvE6__typeEPS3_S7_RKS3_, symObjAddr: 0x5B80, symBinAddr: 0x1000085A0, symSize: 0x9C }
  - { offsetInCU: 0x3E8A5, offset: 0x3E8A5, size: 0x8, addend: 0x0, symName: __ZNSt15__new_allocatorISt6vectorIcSaIcEEE8allocateEmPKv, symObjAddr: 0x5C1C, symBinAddr: 0x10000863C, symSize: 0x90 }
  - { offsetInCU: 0x3E9CC, offset: 0x3E9CC, size: 0x8, addend: 0x0, symName: __ZNSt4pairIKcS_IiiEEC1IJRS0_EJLm0EEJEJEEERSt5tupleIJDpT_EERS5_IJDpT1_EESt12_Index_tupleIJXspT0_EEESE_IJXspT2_EEE, symObjAddr: 0x5B34, symBinAddr: 0x100008554, symSize: 0x4C }
  - { offsetInCU: 0x3E9D4, offset: 0x3E9D4, size: 0x8, addend: 0x0, symName: __ZSt9__fill_a1IcEN9__gnu_cxx11__enable_ifIXsrSt9__is_byteIT_E7__valueEvE6__typeEPS3_S7_RKS3_, symObjAddr: 0x5B80, symBinAddr: 0x1000085A0, symSize: 0x9C }
  - { offsetInCU: 0x3EA09, offset: 0x3EA09, size: 0x8, addend: 0x0, symName: __ZNKSt8__detail21_Hash_node_value_baseISt4pairIKcS1_IiiEEE9_M_valptrEv, symObjAddr: 0x5B18, symBinAddr: 0x100008538, symSize: 0x1C }
  - { offsetInCU: 0x3EA11, offset: 0x3EA11, size: 0x8, addend: 0x0, symName: __ZNSt4pairIKcS_IiiEEC1IJRS0_EJLm0EEJEJEEERSt5tupleIJDpT_EERS5_IJDpT1_EESt12_Index_tupleIJXspT0_EEESE_IJXspT2_EEE, symObjAddr: 0x5B34, symBinAddr: 0x100008554, symSize: 0x4C }
  - { offsetInCU: 0x3EA3A, offset: 0x3EA3A, size: 0x8, addend: 0x0, symName: __ZNKSt8__detail21_Hashtable_ebo_helperILi0ESt8equal_toIcELb1EE7_M_cgetEv, symObjAddr: 0x5B04, symBinAddr: 0x100008524, symSize: 0x14 }
  - { offsetInCU: 0x3EA42, offset: 0x3EA42, size: 0x8, addend: 0x0, symName: __ZNKSt8__detail21_Hash_node_value_baseISt4pairIKcS1_IiiEEE9_M_valptrEv, symObjAddr: 0x5B18, symBinAddr: 0x100008538, symSize: 0x1C }
  - { offsetInCU: 0x3EAFB, offset: 0x3EAFB, size: 0x8, addend: 0x0, symName: __ZSt22__copy_move_backward_aILb0EPPSt4pairIiiES3_ET1_T0_S5_S4_, symObjAddr: 0x5AA4, symBinAddr: 0x1000084C4, symSize: 0x60 }
  - { offsetInCU: 0x3EB03, offset: 0x3EB03, size: 0x8, addend: 0x0, symName: __ZNKSt8__detail21_Hashtable_ebo_helperILi0ESt8equal_toIcELb1EE7_M_cgetEv, symObjAddr: 0x5B04, symBinAddr: 0x100008524, symSize: 0x14 }
  - { offsetInCU: 0x3EB7C, offset: 0x3EB7C, size: 0x8, addend: 0x0, symName: __ZSt13__copy_move_aILb0EPPSt4pairIiiES3_ET1_T0_S5_S4_, symObjAddr: 0x5A44, symBinAddr: 0x100008464, symSize: 0x60 }
  - { offsetInCU: 0x3EB84, offset: 0x3EB84, size: 0x8, addend: 0x0, symName: __ZSt22__copy_move_backward_aILb0EPPSt4pairIiiES3_ET1_T0_S5_S4_, symObjAddr: 0x5AA4, symBinAddr: 0x1000084C4, symSize: 0x60 }
  - { offsetInCU: 0x3EBE1, offset: 0x3EBE1, size: 0x8, addend: 0x0, symName: __ZSt12__miter_baseIPPSt4pairIiiEET_S4_, symObjAddr: 0x5A30, symBinAddr: 0x100008450, symSize: 0x14 }
  - { offsetInCU: 0x3EBE9, offset: 0x3EBE9, size: 0x8, addend: 0x0, symName: __ZSt13__copy_move_aILb0EPPSt4pairIiiES3_ET1_T0_S5_S4_, symObjAddr: 0x5A44, symBinAddr: 0x100008464, symSize: 0x60 }
  - { offsetInCU: 0x3EBDF, offset: 0x3EBDF, size: 0x8, addend: 0x0, symName: __ZNSt15__new_allocatorISt4pairIiiEE8allocateEmPKv, symObjAddr: 0x59B4, symBinAddr: 0x1000083D4, symSize: 0x7C }
  - { offsetInCU: 0x3EBE7, offset: 0x3EBE7, size: 0x8, addend: 0x0, symName: __ZSt12__miter_baseIPPSt4pairIiiEET_S4_, symObjAddr: 0x5A30, symBinAddr: 0x100008450, symSize: 0x14 }
  - { offsetInCU: 0x3ED34, offset: 0x3ED34, size: 0x8, addend: 0x0, symName: __ZSt11__addressofINSt8__detail10_Hash_nodeISt4pairIKcS2_IiiEELb0EEEEPT_RS7_, symObjAddr: 0x59A0, symBinAddr: 0x1000083C0, symSize: 0x14 }
  - { offsetInCU: 0x3ED3C, offset: 0x3ED3C, size: 0x8, addend: 0x0, symName: __ZNSt15__new_allocatorISt4pairIiiEE8allocateEmPKv, symObjAddr: 0x59B4, symBinAddr: 0x1000083D4, symSize: 0x7C }
  - { offsetInCU: 0x3ECDE, offset: 0x3ECDE, size: 0x8, addend: 0x0, symName: __ZNSt10_HashtableIcSt4pairIKcS0_IiiEESaIS3_ENSt8__detail10_Select1stESt8equal_toIcESt4hashIcENS5_18_Mod_range_hashingENS5_20_Default_ranged_hashENS5_20_Prime_rehash_policyENS5_17_Hashtable_traitsILb0ELb0ELb1EEEE16_M_insert_uniqueIRS1_RKS3_NS5_10_AllocNodeISaINS5_10_Hash_nodeIS3_Lb0EEEEEEEES0_INS5_14_Node_iteratorIS3_Lb0ELb0EEEbEOT_OT0_RKT1_, symObjAddr: 0x578C, symBinAddr: 0x1000081AC, symSize: 0x214 }
  - { offsetInCU: 0x3ECE6, offset: 0x3ECE6, size: 0x8, addend: 0x0, symName: __ZSt11__addressofINSt8__detail10_Hash_nodeISt4pairIKcS2_IiiEELb0EEEEPT_RS7_, symObjAddr: 0x59A0, symBinAddr: 0x1000083C0, symSize: 0x14 }
  - { offsetInCU: 0x3EE20, offset: 0x3EE20, size: 0x8, addend: 0x0, symName: __ZNSt10_HashtableIcSt4pairIKcS0_IiiEESaIS3_ENSt8__detail10_Select1stESt8equal_toIcESt4hashIcENS5_18_Mod_range_hashingENS5_20_Default_ranged_hashENS5_20_Prime_rehash_policyENS5_17_Hashtable_traitsILb0ELb0ELb1EEEE14_S_forward_keyERS1_, symObjAddr: 0x5778, symBinAddr: 0x100008198, symSize: 0x14 }
  - { offsetInCU: 0x3EE28, offset: 0x3EE28, size: 0x8, addend: 0x0, symName: __ZNSt10_HashtableIcSt4pairIKcS0_IiiEESaIS3_ENSt8__detail10_Select1stESt8equal_toIcESt4hashIcENS5_18_Mod_range_hashingENS5_20_Default_ranged_hashENS5_20_Prime_rehash_policyENS5_17_Hashtable_traitsILb0ELb0ELb1EEEE16_M_insert_uniqueIRS1_RKS3_NS5_10_AllocNodeISaINS5_10_Hash_nodeIS3_Lb0EEEEEEEES0_INS5_14_Node_iteratorIS3_Lb0ELb0EEEbEOT_OT0_RKT1_, symObjAddr: 0x578C, symBinAddr: 0x1000081AC, symSize: 0x214 }
  - { offsetInCU: 0x3EF17, offset: 0x3EF17, size: 0x8, addend: 0x0, symName: __ZSt7forwardIRKSt8equal_toIcEEOT_RNSt16remove_referenceIS4_E4typeE, symObjAddr: 0x5764, symBinAddr: 0x100008184, symSize: 0x14 }
  - { offsetInCU: 0x3EF1F, offset: 0x3EF1F, size: 0x8, addend: 0x0, symName: __ZNSt10_HashtableIcSt4pairIKcS0_IiiEESaIS3_ENSt8__detail10_Select1stESt8equal_toIcESt4hashIcENS5_18_Mod_range_hashingENS5_20_Default_ranged_hashENS5_20_Prime_rehash_policyENS5_17_Hashtable_traitsILb0ELb0ELb1EEEE14_S_forward_keyERS1_, symObjAddr: 0x5778, symBinAddr: 0x100008198, symSize: 0x14 }
  - { offsetInCU: 0x3EF83, offset: 0x3EF83, size: 0x8, addend: 0x0, symName: __ZNSt8__detail21_Hashtable_ebo_helperILi1ESt4hashIcELb1EEC2IRKS2_EEOT_, symObjAddr: 0x5740, symBinAddr: 0x100008160, symSize: 0x24 }
  - { offsetInCU: 0x3EF8B, offset: 0x3EF8B, size: 0x8, addend: 0x0, symName: __ZSt7forwardIRKSt8equal_toIcEEOT_RNSt16remove_referenceIS4_E4typeE, symObjAddr: 0x5764, symBinAddr: 0x100008184, symSize: 0x14 }
  - { offsetInCU: 0x3F040, offset: 0x3F040, size: 0x8, addend: 0x0, symName: __ZSt18uninitialized_copyIN9__gnu_cxx17__normal_iteratorIPKcSt6vectorIcSaIcEEEEPcET0_T_SA_S9_, symObjAddr: 0x5704, symBinAddr: 0x100008124, symSize: 0x3C }
  - { offsetInCU: 0x3F048, offset: 0x3F048, size: 0x8, addend: 0x0, symName: __ZNSt8__detail21_Hashtable_ebo_helperILi1ESt4hashIcELb1EEC2IRKS2_EEOT_, symObjAddr: 0x5740, symBinAddr: 0x100008160, symSize: 0x24 }
  - { offsetInCU: 0x3F0E3, offset: 0x3F0E3, size: 0x8, addend: 0x0, symName: __ZSt16__do_uninit_copyIN9__gnu_cxx17__normal_iteratorIPKcSt6vectorIcSaIcEEEEPcET0_T_SA_S9_, symObjAddr: 0x5678, symBinAddr: 0x100008098, symSize: 0x8C }
  - { offsetInCU: 0x3F0EB, offset: 0x3F0EB, size: 0x8, addend: 0x0, symName: __ZSt18uninitialized_copyIN9__gnu_cxx17__normal_iteratorIPKcSt6vectorIcSaIcEEEEPcET0_T_SA_S9_, symObjAddr: 0x5704, symBinAddr: 0x100008124, symSize: 0x3C }
  - { offsetInCU: 0x3F0C1, offset: 0x3F0C1, size: 0x8, addend: 0x0, symName: __ZNK9__gnu_cxx17__normal_iteratorIPKcSt6vectorIcSaIcEEE4baseEv, symObjAddr: 0x5664, symBinAddr: 0x100008084, symSize: 0x14 }
  - { offsetInCU: 0x3F0C9, offset: 0x3F0C9, size: 0x8, addend: 0x0, symName: __ZSt16__do_uninit_copyIN9__gnu_cxx17__normal_iteratorIPKcSt6vectorIcSaIcEEEEPcET0_T_SA_S9_, symObjAddr: 0x5678, symBinAddr: 0x100008098, symSize: 0x8C }
  - { offsetInCU: 0x3F16E, offset: 0x3F16E, size: 0x8, addend: 0x0, symName: __ZN9__gnu_cxxeqIPKcSt6vectorIcSaIcEEEEbRKNS_17__normal_iteratorIT_T0_EESB_, symObjAddr: 0x5620, symBinAddr: 0x100008040, symSize: 0x44 }
  - { offsetInCU: 0x3F176, offset: 0x3F176, size: 0x8, addend: 0x0, symName: __ZNK9__gnu_cxx17__normal_iteratorIPKcSt6vectorIcSaIcEEE4baseEv, symObjAddr: 0x5664, symBinAddr: 0x100008084, symSize: 0x14 }
  - { offsetInCU: 0x3F1D8, offset: 0x3F1D8, size: 0x8, addend: 0x0, symName: __ZN9__gnu_cxx17__normal_iteratorIPKcSt6vectorIcSaIcEEEC1ERKS2_, symObjAddr: 0x55F8, symBinAddr: 0x100008018, symSize: 0x28 }
  - { offsetInCU: 0x3F1E0, offset: 0x3F1E0, size: 0x8, addend: 0x0, symName: __ZN9__gnu_cxxeqIPKcSt6vectorIcSaIcEEEEbRKNS_17__normal_iteratorIT_T0_EESB_, symObjAddr: 0x5620, symBinAddr: 0x100008040, symSize: 0x44 }
  - { offsetInCU: 0x3F23E, offset: 0x3F23E, size: 0x8, addend: 0x0, symName: __ZSt22__uninitialized_copy_aIPcS0_cET0_T_S2_S1_RSaIT1_E, symObjAddr: 0x559C, symBinAddr: 0x100007FBC, symSize: 0x5C }
  - { offsetInCU: 0x3F246, offset: 0x3F246, size: 0x8, addend: 0x0, symName: __ZN9__gnu_cxx17__normal_iteratorIPKcSt6vectorIcSaIcEEEC1ERKS2_, symObjAddr: 0x55F8, symBinAddr: 0x100008018, symSize: 0x28 }
  - { offsetInCU: 0x3F2A9, offset: 0x3F2A9, size: 0x8, addend: 0x0, symName: __ZSt4copyIPcS0_ET0_T_S2_S1_, symObjAddr: 0x5554, symBinAddr: 0x100007F74, symSize: 0x48 }
  - { offsetInCU: 0x3F2B1, offset: 0x3F2B1, size: 0x8, addend: 0x0, symName: __ZSt22__uninitialized_copy_aIPcS0_cET0_T_S2_S1_RSaIT1_E, symObjAddr: 0x559C, symBinAddr: 0x100007FBC, symSize: 0x5C }
  - { offsetInCU: 0x3F352, offset: 0x3F352, size: 0x8, addend: 0x0, symName: __ZNSt6vectorIcSaIcEE3endEv, symObjAddr: 0x552C, symBinAddr: 0x100007F4C, symSize: 0x28 }
  - { offsetInCU: 0x3F35A, offset: 0x3F35A, size: 0x8, addend: 0x0, symName: __ZSt4copyIPcS0_ET0_T_S2_S1_, symObjAddr: 0x5554, symBinAddr: 0x100007F74, symSize: 0x48 }
  - { offsetInCU: 0x3F45E, offset: 0x3F45E, size: 0x8, addend: 0x0, symName: __ZSt4copyIN9__gnu_cxx17__normal_iteratorIPKcSt6vectorIcSaIcEEEENS1_IPcS6_EEET0_T_SB_SA_, symObjAddr: 0x54E4, symBinAddr: 0x100007F04, symSize: 0x48 }
  - { offsetInCU: 0x3F466, offset: 0x3F466, size: 0x8, addend: 0x0, symName: __ZNSt6vectorIcSaIcEE3endEv, symObjAddr: 0x552C, symBinAddr: 0x100007F4C, symSize: 0x28 }
  - { offsetInCU: 0x3F408, offset: 0x3F408, size: 0x8, addend: 0x0, symName: __ZNSt6vectorIcSaIcEE5beginEv, symObjAddr: 0x54C0, symBinAddr: 0x100007EE0, symSize: 0x24 }
  - { offsetInCU: 0x3F410, offset: 0x3F410, size: 0x8, addend: 0x0, symName: __ZSt4copyIN9__gnu_cxx17__normal_iteratorIPKcSt6vectorIcSaIcEEEENS1_IPcS6_EEET0_T_SB_SA_, symObjAddr: 0x54E4, symBinAddr: 0x100007F04, symSize: 0x48 }
  - { offsetInCU: 0x3F439, offset: 0x3F439, size: 0x8, addend: 0x0, symName: __ZNSt6vectorIcSaIcEE20_M_allocate_and_copyIN9__gnu_cxx17__normal_iteratorIPKcS1_EEEEPcmT_S9_, symObjAddr: 0x543C, symBinAddr: 0x100007E5C, symSize: 0x84 }
  - { offsetInCU: 0x3F441, offset: 0x3F441, size: 0x8, addend: 0x0, symName: __ZNSt6vectorIcSaIcEE5beginEv, symObjAddr: 0x54C0, symBinAddr: 0x100007EE0, symSize: 0x24 }
  - { offsetInCU: 0x3F4CB, offset: 0x3F4CB, size: 0x8, addend: 0x0, symName: __ZNKSt6vectorIcSaIcEE8capacityEv, symObjAddr: 0x5418, symBinAddr: 0x100007E38, symSize: 0x24 }
  - { offsetInCU: 0x3F4D3, offset: 0x3F4D3, size: 0x8, addend: 0x0, symName: __ZNSt6vectorIcSaIcEE20_M_allocate_and_copyIN9__gnu_cxx17__normal_iteratorIPKcS1_EEEEPcmT_S9_, symObjAddr: 0x543C, symBinAddr: 0x100007E5C, symSize: 0x84 }
  - { offsetInCU: 0x3F4FC, offset: 0x3F4FC, size: 0x8, addend: 0x0, symName: __ZNSt6vectorIcSaIcEE5clearEv, symObjAddr: 0x53EC, symBinAddr: 0x100007E0C, symSize: 0x2C }
  - { offsetInCU: 0x3F504, offset: 0x3F504, size: 0x8, addend: 0x0, symName: __ZNKSt6vectorIcSaIcEE8capacityEv, symObjAddr: 0x5418, symBinAddr: 0x100007E38, symSize: 0x24 }
  - { offsetInCU: 0x3F584, offset: 0x3F584, size: 0x8, addend: 0x0, symName: __ZSt11__addressofIKSt6vectorIcSaIcEEEPT_RS4_, symObjAddr: 0x53D8, symBinAddr: 0x100007DF8, symSize: 0x14 }
  - { offsetInCU: 0x3F58C, offset: 0x3F58C, size: 0x8, addend: 0x0, symName: __ZNSt6vectorIcSaIcEE5clearEv, symObjAddr: 0x53EC, symBinAddr: 0x100007E0C, symSize: 0x2C }
  - { offsetInCU: 0x3F5DB, offset: 0x3F5DB, size: 0x8, addend: 0x0, symName: __ZSt8__fill_aIPccEvT_S1_RKT0_, symObjAddr: 0x53A8, symBinAddr: 0x100007DC8, symSize: 0x30 }
  - { offsetInCU: 0x3F5E3, offset: 0x3F5E3, size: 0x8, addend: 0x0, symName: __ZSt11__addressofIKSt6vectorIcSaIcEEEPT_RS4_, symObjAddr: 0x53D8, symBinAddr: 0x100007DF8, symSize: 0x14 }
  - { offsetInCU: 0x3F622, offset: 0x3F622, size: 0x8, addend: 0x0, symName: __ZNSt15__new_allocatorINSt8__detail10_Hash_nodeISt4pairIKcS2_IiiEELb0EEEE10deallocateEPS6_m, symObjAddr: 0x536C, symBinAddr: 0x100007D8C, symSize: 0x3C }
  - { offsetInCU: 0x3F62A, offset: 0x3F62A, size: 0x8, addend: 0x0, symName: __ZSt8__fill_aIPccEvT_S1_RKT0_, symObjAddr: 0x53A8, symBinAddr: 0x100007DC8, symSize: 0x30 }
  - { offsetInCU: 0x3F72E, offset: 0x3F72E, size: 0x8, addend: 0x0, symName: __ZNSt4pairIKcS_IiiEEC1IJRS0_EJEEESt21piecewise_construct_tSt5tupleIJDpT_EES6_IJDpT0_EE, symObjAddr: 0x5330, symBinAddr: 0x100007D50, symSize: 0x3C }
  - { offsetInCU: 0x3F736, offset: 0x3F736, size: 0x8, addend: 0x0, symName: __ZNSt15__new_allocatorINSt8__detail10_Hash_nodeISt4pairIKcS2_IiiEELb0EEEE10deallocateEPS6_m, symObjAddr: 0x536C, symBinAddr: 0x100007D8C, symSize: 0x3C }
  - { offsetInCU: 0x3F795, offset: 0x3F795, size: 0x8, addend: 0x0, symName: __ZNSt11_Tuple_implILm0EJRKcEEC2EOS2_, symObjAddr: 0x5308, symBinAddr: 0x100007D28, symSize: 0x28 }
  - { offsetInCU: 0x3F79D, offset: 0x3F79D, size: 0x8, addend: 0x0, symName: __ZNSt4pairIKcS_IiiEEC1IJRS0_EJEEESt21piecewise_construct_tSt5tupleIJDpT_EES6_IJDpT0_EE, symObjAddr: 0x5330, symBinAddr: 0x100007D50, symSize: 0x3C }
  - { offsetInCU: 0x3F7AD, offset: 0x3F7AD, size: 0x8, addend: 0x0, symName: __ZNSt15__new_allocatorINSt8__detail10_Hash_nodeISt4pairIKcS2_IiiEELb0EEEE8allocateEmPKv, symObjAddr: 0x5278, symBinAddr: 0x100007C98, symSize: 0x90 }
  - { offsetInCU: 0x3F7B5, offset: 0x3F7B5, size: 0x8, addend: 0x0, symName: __ZNSt11_Tuple_implILm0EJRKcEEC2EOS2_, symObjAddr: 0x5308, symBinAddr: 0x100007D28, symSize: 0x28 }
  - { offsetInCU: 0x3F83B, offset: 0x3F83B, size: 0x8, addend: 0x0, symName: __ZNKSt8equal_toIcEclERKcS2_, symObjAddr: 0x5244, symBinAddr: 0x100007C64, symSize: 0x34 }
  - { offsetInCU: 0x3F843, offset: 0x3F843, size: 0x8, addend: 0x0, symName: __ZNSt15__new_allocatorINSt8__detail10_Hash_nodeISt4pairIKcS2_IiiEELb0EEEE8allocateEmPKv, symObjAddr: 0x5278, symBinAddr: 0x100007C98, symSize: 0x90 }
  - { offsetInCU: 0x3F8A9, offset: 0x3F8A9, size: 0x8, addend: 0x0, symName: __ZNKSt8__detail10_Select1stclIRKSt4pairIKcS2_IiiEEEEONS0_10__1st_typeIT_E4typeEOS9_, symObjAddr: 0x5224, symBinAddr: 0x100007C44, symSize: 0x20 }
  - { offsetInCU: 0x3F8B1, offset: 0x3F8B1, size: 0x8, addend: 0x0, symName: __ZNKSt8equal_toIcEclERKcS2_, symObjAddr: 0x5244, symBinAddr: 0x100007C64, symSize: 0x34 }
  - { offsetInCU: 0x3F8FB, offset: 0x3F8FB, size: 0x8, addend: 0x0, symName: __ZNKSt8__detail21_Hash_node_value_baseISt4pairIKcS1_IiiEEE4_M_vEv, symObjAddr: 0x5208, symBinAddr: 0x100007C28, symSize: 0x1C }
  - { offsetInCU: 0x3F903, offset: 0x3F903, size: 0x8, addend: 0x0, symName: __ZNKSt8__detail10_Select1stclIRKSt4pairIKcS2_IiiEEEEONS0_10__1st_typeIT_E4typeEOS9_, symObjAddr: 0x5224, symBinAddr: 0x100007C44, symSize: 0x20 }
  - { offsetInCU: 0x3F92C, offset: 0x3F92C, size: 0x8, addend: 0x0, symName: __ZNKSt8__detail15_Hashtable_baseIcSt4pairIKcS1_IiiEENS_10_Select1stESt8equal_toIcESt4hashIcENS_18_Mod_range_hashingENS_20_Default_ranged_hashENS_17_Hashtable_traitsILb0ELb0ELb1EEEE5_M_eqEv, symObjAddr: 0x51EC, symBinAddr: 0x100007C0C, symSize: 0x1C }
  - { offsetInCU: 0x3F934, offset: 0x3F934, size: 0x8, addend: 0x0, symName: __ZNKSt8__detail21_Hash_node_value_baseISt4pairIKcS1_IiiEEE4_M_vEv, symObjAddr: 0x5208, symBinAddr: 0x100007C28, symSize: 0x1C }
  - { offsetInCU: 0x3F9CF, offset: 0x3F9CF, size: 0x8, addend: 0x0, symName: __ZSt13copy_backwardIPPSt4pairIiiES3_ET0_T_S5_S4_, symObjAddr: 0x51A4, symBinAddr: 0x100007BC4, symSize: 0x48 }
  - { offsetInCU: 0x3F9D7, offset: 0x3F9D7, size: 0x8, addend: 0x0, symName: __ZNKSt8__detail15_Hashtable_baseIcSt4pairIKcS1_IiiEENS_10_Select1stESt8equal_toIcESt4hashIcENS_18_Mod_range_hashingENS_20_Default_ranged_hashENS_17_Hashtable_traitsILb0ELb0ELb1EEEE5_M_eqEv, symObjAddr: 0x51EC, symBinAddr: 0x100007C0C, symSize: 0x1C }
  - { offsetInCU: 0x3FA41, offset: 0x3FA41, size: 0x8, addend: 0x0, symName: __ZSt4copyIPPSt4pairIiiES3_ET0_T_S5_S4_, symObjAddr: 0x515C, symBinAddr: 0x100007B7C, symSize: 0x48 }
  - { offsetInCU: 0x3FA49, offset: 0x3FA49, size: 0x8, addend: 0x0, symName: __ZSt13copy_backwardIPPSt4pairIiiES3_ET0_T_S5_S4_, symObjAddr: 0x51A4, symBinAddr: 0x100007BC4, symSize: 0x48 }
  - { offsetInCU: 0x3FA67, offset: 0x3FA67, size: 0x8, addend: 0x0, symName: __ZNSt15__new_allocatorISt4pairIiiEE10deallocateEPS1_m, symObjAddr: 0x512C, symBinAddr: 0x100007B4C, symSize: 0x30 }
  - { offsetInCU: 0x3FA6F, offset: 0x3FA6F, size: 0x8, addend: 0x0, symName: __ZSt4copyIPPSt4pairIiiES3_ET0_T_S5_S4_, symObjAddr: 0x515C, symBinAddr: 0x100007B7C, symSize: 0x48 }
  - { offsetInCU: 0x3FAEC, offset: 0x3FAEC, size: 0x8, addend: 0x0, symName: __ZNSt15__new_allocatorIPSt4pairIiiEE8allocateEmPKv, symObjAddr: 0x50B0, symBinAddr: 0x100007AD0, symSize: 0x7C }
  - { offsetInCU: 0x3FAF4, offset: 0x3FAF4, size: 0x8, addend: 0x0, symName: __ZNSt15__new_allocatorISt4pairIiiEE10deallocateEPS1_m, symObjAddr: 0x512C, symBinAddr: 0x100007B4C, symSize: 0x30 }
  - { offsetInCU: 0x3FB7A, offset: 0x3FB7A, size: 0x8, addend: 0x0, symName: __ZNSt15__new_allocatorIPNSt8__detail15_Hash_node_baseEE10deallocateEPS2_m, symObjAddr: 0x5080, symBinAddr: 0x100007AA0, symSize: 0x30 }
  - { offsetInCU: 0x3FB82, offset: 0x3FB82, size: 0x8, addend: 0x0, symName: __ZNSt15__new_allocatorIPSt4pairIiiEE8allocateEmPKv, symObjAddr: 0x50B0, symBinAddr: 0x100007AD0, symSize: 0x7C }
  - { offsetInCU: 0x3FC3E, offset: 0x3FC3E, size: 0x8, addend: 0x0, symName: __ZSt11__addressofIPNSt8__detail15_Hash_node_baseEEPT_RS3_, symObjAddr: 0x506C, symBinAddr: 0x100007A8C, symSize: 0x14 }
  - { offsetInCU: 0x3FC46, offset: 0x3FC46, size: 0x8, addend: 0x0, symName: __ZNSt15__new_allocatorIPNSt8__detail15_Hash_node_baseEE10deallocateEPS2_m, symObjAddr: 0x5080, symBinAddr: 0x100007AA0, symSize: 0x30 }
  - { offsetInCU: 0x3FCD0, offset: 0x3FCD0, size: 0x8, addend: 0x0, symName: __ZSt9addressofINSt8__detail10_Hash_nodeISt4pairIKcS2_IiiEELb0EEEEPT_RS7_, symObjAddr: 0x5050, symBinAddr: 0x100007A70, symSize: 0x1C }
  - { offsetInCU: 0x3FCD8, offset: 0x3FCD8, size: 0x8, addend: 0x0, symName: __ZSt11__addressofIPNSt8__detail15_Hash_node_baseEEPT_RS3_, symObjAddr: 0x506C, symBinAddr: 0x100007A8C, symSize: 0x14 }
  - { offsetInCU: 0x3FC75, offset: 0x3FC75, size: 0x8, addend: 0x0, symName: __ZNSt10_HashtableIcSt4pairIKcS0_IiiEESaIS3_ENSt8__detail10_Select1stESt8equal_toIcESt4hashIcENS5_18_Mod_range_hashingENS5_20_Default_ranged_hashENS5_20_Prime_rehash_policyENS5_17_Hashtable_traitsILb0ELb0ELb1EEEE20_M_insert_unique_auxIRKS3_NS5_10_AllocNodeISaINS5_10_Hash_nodeIS3_Lb0EEEEEEEES0_INS5_14_Node_iteratorIS3_Lb0ELb0EEEbEOT_RKT0_, symObjAddr: 0x4FF4, symBinAddr: 0x100007A14, symSize: 0x5C }
  - { offsetInCU: 0x3FC7D, offset: 0x3FC7D, size: 0x8, addend: 0x0, symName: __ZSt9addressofINSt8__detail10_Hash_nodeISt4pairIKcS2_IiiEELb0EEEEPT_RS7_, symObjAddr: 0x5050, symBinAddr: 0x100007A70, symSize: 0x1C }
  - { offsetInCU: 0x3FCEA, offset: 0x3FCEA, size: 0x8, addend: 0x0, symName: __ZNKSt8__detail19_ConvertToValueTypeINS_10_Select1stESt4pairIKcS2_IiiEEEclERKS5_, symObjAddr: 0x4FDC, symBinAddr: 0x1000079FC, symSize: 0x18 }
  - { offsetInCU: 0x3FCF2, offset: 0x3FCF2, size: 0x8, addend: 0x0, symName: __ZNSt10_HashtableIcSt4pairIKcS0_IiiEESaIS3_ENSt8__detail10_Select1stESt8equal_toIcESt4hashIcENS5_18_Mod_range_hashingENS5_20_Default_ranged_hashENS5_20_Prime_rehash_policyENS5_17_Hashtable_traitsILb0ELb0ELb1EEEE20_M_insert_unique_auxIRKS3_NS5_10_AllocNodeISaINS5_10_Hash_nodeIS3_Lb0EEEEEEEES0_INS5_14_Node_iteratorIS3_Lb0ELb0EEEbEOT_RKT0_, symObjAddr: 0x4FF4, symBinAddr: 0x100007A14, symSize: 0x5C }
  - { offsetInCU: 0x3FDB6, offset: 0x3FDB6, size: 0x8, addend: 0x0, symName: __ZSt7forwardIRKSt4pairIKcS0_IiiEEEOT_RNSt16remove_referenceIS6_E4typeE, symObjAddr: 0x4FC8, symBinAddr: 0x1000079E8, symSize: 0x14 }
  - { offsetInCU: 0x3FDBE, offset: 0x3FDBE, size: 0x8, addend: 0x0, symName: __ZNKSt8__detail19_ConvertToValueTypeINS_10_Select1stESt4pairIKcS2_IiiEEEclERKS5_, symObjAddr: 0x4FDC, symBinAddr: 0x1000079FC, symSize: 0x18 }
  - { offsetInCU: 0x3FDF1, offset: 0x3FDF1, size: 0x8, addend: 0x0, symName: __ZSt12__to_addressIPNSt8__detail15_Hash_node_baseEEPT_S4_, symObjAddr: 0x4FB4, symBinAddr: 0x1000079D4, symSize: 0x14 }
  - { offsetInCU: 0x3FDF9, offset: 0x3FDF9, size: 0x8, addend: 0x0, symName: __ZSt7forwardIRKSt4pairIKcS0_IiiEEEOT_RNSt16remove_referenceIS6_E4typeE, symObjAddr: 0x4FC8, symBinAddr: 0x1000079E8, symSize: 0x14 }
  - { offsetInCU: 0x3FEAC, offset: 0x3FEAC, size: 0x8, addend: 0x0, symName: __ZNSt8__detail21_Hashtable_ebo_helperILi0ESaINS_10_Hash_nodeISt4pairIKcS2_IiiEELb0EEEELb1EEC2IS7_EEOT_, symObjAddr: 0x4F68, symBinAddr: 0x100007988, symSize: 0x4C }
  - { offsetInCU: 0x3FEB4, offset: 0x3FEB4, size: 0x8, addend: 0x0, symName: __ZSt12__to_addressIPNSt8__detail15_Hash_node_baseEEPT_S4_, symObjAddr: 0x4FB4, symBinAddr: 0x1000079D4, symSize: 0x14 }
  - { offsetInCU: 0x3FFCE, offset: 0x3FFCE, size: 0x8, addend: 0x0, symName: __ZSt7forwardISaINSt8__detail10_Hash_nodeISt4pairIKcS2_IiiEELb0EEEEEOT_RNSt16remove_referenceIS8_E4typeE, symObjAddr: 0x4F54, symBinAddr: 0x100007974, symSize: 0x14 }
  - { offsetInCU: 0x3FFD6, offset: 0x3FFD6, size: 0x8, addend: 0x0, symName: __ZNSt8__detail21_Hashtable_ebo_helperILi0ESaINS_10_Hash_nodeISt4pairIKcS2_IiiEELb0EEEELb1EEC2IS7_EEOT_, symObjAddr: 0x4F68, symBinAddr: 0x100007988, symSize: 0x4C }
  - { offsetInCU: 0x3FFD4, offset: 0x3FFD4, size: 0x8, addend: 0x0, symName: __ZNSt8__detail21_Hashtable_ebo_helperILi0ESt8equal_toIcELb1EEC2IRKS2_EEOT_, symObjAddr: 0x4F30, symBinAddr: 0x100007950, symSize: 0x24 }
  - { offsetInCU: 0x3FFDC, offset: 0x3FFDC, size: 0x8, addend: 0x0, symName: __ZSt7forwardISaINSt8__detail10_Hash_nodeISt4pairIKcS2_IiiEELb0EEEEEOT_RNSt16remove_referenceIS8_E4typeE, symObjAddr: 0x4F54, symBinAddr: 0x100007974, symSize: 0x14 }
  - { offsetInCU: 0x4008D, offset: 0x4008D, size: 0x8, addend: 0x0, symName: __ZNSt8__detail15_Hash_code_baseIcSt4pairIKcS1_IiiEENS_10_Select1stESt4hashIcENS_18_Mod_range_hashingENS_20_Default_ranged_hashELb0EEC2ERKS7_, symObjAddr: 0x4F08, symBinAddr: 0x100007928, symSize: 0x28 }
  - { offsetInCU: 0x40095, offset: 0x40095, size: 0x8, addend: 0x0, symName: __ZNSt8__detail21_Hashtable_ebo_helperILi0ESt8equal_toIcELb1EEC2IRKS2_EEOT_, symObjAddr: 0x4F30, symBinAddr: 0x100007950, symSize: 0x24 }
  - { offsetInCU: 0x4012A, offset: 0x4012A, size: 0x8, addend: 0x0, symName: __ZSt22__uninitialized_copy_aIN9__gnu_cxx17__normal_iteratorIPKcSt6vectorIcSaIcEEEEPccET0_T_SA_S9_RSaIT1_E, symObjAddr: 0x4EAC, symBinAddr: 0x1000078CC, symSize: 0x5C }
  - { offsetInCU: 0x40132, offset: 0x40132, size: 0x8, addend: 0x0, symName: __ZNSt8__detail15_Hash_code_baseIcSt4pairIKcS1_IiiEENS_10_Select1stESt4hashIcENS_18_Mod_range_hashingENS_20_Default_ranged_hashELb0EEC2ERKS7_, symObjAddr: 0x4F08, symBinAddr: 0x100007928, symSize: 0x28 }
  - { offsetInCU: 0x400F7, offset: 0x400F7, size: 0x8, addend: 0x0, symName: __ZNKSt6vectorIcSaIcEE3endEv, symObjAddr: 0x4E84, symBinAddr: 0x1000078A4, symSize: 0x28 }
  - { offsetInCU: 0x400FF, offset: 0x400FF, size: 0x8, addend: 0x0, symName: __ZSt22__uninitialized_copy_aIN9__gnu_cxx17__normal_iteratorIPKcSt6vectorIcSaIcEEEEPccET0_T_SA_S9_RSaIT1_E, symObjAddr: 0x4EAC, symBinAddr: 0x1000078CC, symSize: 0x5C }
  - { offsetInCU: 0x40128, offset: 0x40128, size: 0x8, addend: 0x0, symName: __ZNKSt6vectorIcSaIcEE5beginEv, symObjAddr: 0x4E60, symBinAddr: 0x100007880, symSize: 0x24 }
  - { offsetInCU: 0x40130, offset: 0x40130, size: 0x8, addend: 0x0, symName: __ZNKSt6vectorIcSaIcEE3endEv, symObjAddr: 0x4E84, symBinAddr: 0x1000078A4, symSize: 0x28 }
  - { offsetInCU: 0x40159, offset: 0x40159, size: 0x8, addend: 0x0, symName: __ZNKSt12_Vector_baseIcSaIcEE19_M_get_Tp_allocatorEv, symObjAddr: 0x4E4C, symBinAddr: 0x10000786C, symSize: 0x14 }
  - { offsetInCU: 0x40161, offset: 0x40161, size: 0x8, addend: 0x0, symName: __ZNKSt6vectorIcSaIcEE5beginEv, symObjAddr: 0x4E60, symBinAddr: 0x100007880, symSize: 0x24 }
  - { offsetInCU: 0x4018A, offset: 0x4018A, size: 0x8, addend: 0x0, symName: __ZNSt6vectorIcSaIcEEaSERKS1_, symObjAddr: 0x4B14, symBinAddr: 0x100007534, symSize: 0x338 }
  - { offsetInCU: 0x40192, offset: 0x40192, size: 0x8, addend: 0x0, symName: __ZNKSt12_Vector_baseIcSaIcEE19_M_get_Tp_allocatorEv, symObjAddr: 0x4E4C, symBinAddr: 0x10000786C, symSize: 0x14 }
  - { offsetInCU: 0x40343, offset: 0x40343, size: 0x8, addend: 0x0, symName: __ZNKSt6vectorIcSaIcEE4sizeEv, symObjAddr: 0x4AF0, symBinAddr: 0x100007510, symSize: 0x24 }
  - { offsetInCU: 0x4034B, offset: 0x4034B, size: 0x8, addend: 0x0, symName: __ZNSt6vectorIcSaIcEEaSERKS1_, symObjAddr: 0x4B14, symBinAddr: 0x100007534, symSize: 0x338 }
  - { offsetInCU: 0x40416, offset: 0x40416, size: 0x8, addend: 0x0, symName: __ZSt10__fill_n_aIPcmcET_S1_T0_RKT1_St26random_access_iterator_tag, symObjAddr: 0x4A94, symBinAddr: 0x1000074B4, symSize: 0x5C }
  - { offsetInCU: 0x4041E, offset: 0x4041E, size: 0x8, addend: 0x0, symName: __ZNKSt6vectorIcSaIcEE4sizeEv, symObjAddr: 0x4AF0, symBinAddr: 0x100007510, symSize: 0x24 }
  - { offsetInCU: 0x405B0, offset: 0x405B0, size: 0x8, addend: 0x0, symName: __ZSt12construct_atISt4pairIKcS0_IiiEEJRKSt21piecewise_construct_tSt5tupleIJRS1_EES7_IJEEEEDTgsnwcvPvLi0E_T_pispcl7declvalIT0_EEEEPSC_DpOSD_, symObjAddr: 0x49DC, symBinAddr: 0x1000073FC, symSize: 0xB8 }
  - { offsetInCU: 0x405B8, offset: 0x405B8, size: 0x8, addend: 0x0, symName: __ZSt10__fill_n_aIPcmcET_S1_T0_RKT1_St26random_access_iterator_tag, symObjAddr: 0x4A94, symBinAddr: 0x1000074B4, symSize: 0x5C }
  - { offsetInCU: 0x40587, offset: 0x40587, size: 0x8, addend: 0x0, symName: __ZNSt5tupleIJRKcEEC1EOS2_, symObjAddr: 0x49B4, symBinAddr: 0x1000073D4, symSize: 0x28 }
  - { offsetInCU: 0x4058F, offset: 0x4058F, size: 0x8, addend: 0x0, symName: __ZSt12construct_atISt4pairIKcS0_IiiEEJRKSt21piecewise_construct_tSt5tupleIJRS1_EES7_IJEEEEDTgsnwcvPvLi0E_T_pispcl7declvalIT0_EEEEPSC_DpOSD_, symObjAddr: 0x49DC, symBinAddr: 0x1000073FC, symSize: 0xB8 }
  - { offsetInCU: 0x405DB, offset: 0x405DB, size: 0x8, addend: 0x0, symName: __ZN9__gnu_cxx16__aligned_bufferISt4pairIKcS1_IiiEEE7_M_addrEv, symObjAddr: 0x49A0, symBinAddr: 0x1000073C0, symSize: 0x14 }
  - { offsetInCU: 0x405E3, offset: 0x405E3, size: 0x8, addend: 0x0, symName: __ZNSt5tupleIJRKcEEC1EOS2_, symObjAddr: 0x49B4, symBinAddr: 0x1000073D4, symSize: 0x28 }
  - { offsetInCU: 0x4060F, offset: 0x4060F, size: 0x8, addend: 0x0, symName: __ZNKSt8__detail15_Hash_code_baseIcSt4pairIKcS1_IiiEENS_10_Select1stESt4hashIcENS_18_Mod_range_hashingENS_20_Default_ranged_hashELb0EE15_M_bucket_indexERKNS_16_Hash_node_valueIS4_Lb0EEEm, symObjAddr: 0x4954, symBinAddr: 0x100007374, symSize: 0x4C }
  - { offsetInCU: 0x40617, offset: 0x40617, size: 0x8, addend: 0x0, symName: __ZN9__gnu_cxx16__aligned_bufferISt4pairIKcS1_IiiEEE7_M_addrEv, symObjAddr: 0x49A0, symBinAddr: 0x1000073C0, symSize: 0x14 }
  - { offsetInCU: 0x4066A, offset: 0x4066A, size: 0x8, addend: 0x0, symName: __ZNKSt8__detail15_Hashtable_baseIcSt4pairIKcS1_IiiEENS_10_Select1stESt8equal_toIcESt4hashIcENS_18_Mod_range_hashingENS_20_Default_ranged_hashENS_17_Hashtable_traitsILb0ELb0ELb1EEEE13_M_key_equalsERS2_RKNS_16_Hash_node_valueIS4_Lb0EEE, symObjAddr: 0x48FC, symBinAddr: 0x10000731C, symSize: 0x58 }
  - { offsetInCU: 0x40672, offset: 0x40672, size: 0x8, addend: 0x0, symName: __ZNKSt8__detail15_Hash_code_baseIcSt4pairIKcS1_IiiEENS_10_Select1stESt4hashIcENS_18_Mod_range_hashingENS_20_Default_ranged_hashELb0EE15_M_bucket_indexERKNS_16_Hash_node_valueIS4_Lb0EEEm, symObjAddr: 0x4954, symBinAddr: 0x100007374, symSize: 0x4C }
  - { offsetInCU: 0x406C5, offset: 0x406C5, size: 0x8, addend: 0x0, symName: __ZNSt8__detail15_Hashtable_baseIcSt4pairIKcS1_IiiEENS_10_Select1stESt8equal_toIcESt4hashIcENS_18_Mod_range_hashingENS_20_Default_ranged_hashENS_17_Hashtable_traitsILb0ELb0ELb1EEEE9_S_equalsEmRKNS_21_Hash_node_code_cacheILb0EEE, symObjAddr: 0x48E4, symBinAddr: 0x100007304, symSize: 0x18 }
  - { offsetInCU: 0x406CD, offset: 0x406CD, size: 0x8, addend: 0x0, symName: __ZNKSt8__detail15_Hashtable_baseIcSt4pairIKcS1_IiiEENS_10_Select1stESt8equal_toIcESt4hashIcENS_18_Mod_range_hashingENS_20_Default_ranged_hashENS_17_Hashtable_traitsILb0ELb0ELb1EEEE13_M_key_equalsERS2_RKNS_16_Hash_node_valueIS4_Lb0EEE, symObjAddr: 0x48FC, symBinAddr: 0x10000731C, symSize: 0x58 }
  - { offsetInCU: 0x406FE, offset: 0x406FE, size: 0x8, addend: 0x0, symName: __ZNSt5dequeISt4pairIiiESaIS1_EE17_M_reallocate_mapEmb, symObjAddr: 0x46A4, symBinAddr: 0x1000070C4, symSize: 0x240 }
  - { offsetInCU: 0x40706, offset: 0x40706, size: 0x8, addend: 0x0, symName: __ZNSt8__detail15_Hashtable_baseIcSt4pairIKcS1_IiiEENS_10_Select1stESt8equal_toIcESt4hashIcENS_18_Mod_range_hashingENS_20_Default_ranged_hashENS_17_Hashtable_traitsILb0ELb0ELb1EEEE9_S_equalsEmRKNS_21_Hash_node_code_cacheILb0EEE, symObjAddr: 0x48E4, symBinAddr: 0x100007304, symSize: 0x18 }
  - { offsetInCU: 0x407D6, offset: 0x407D6, size: 0x8, addend: 0x0, symName: __ZNSt5dequeISt4pairIiiESaIS1_EE11_S_max_sizeERKS2_, symObjAddr: 0x4668, symBinAddr: 0x100007088, symSize: 0x3C }
  - { offsetInCU: 0x407DE, offset: 0x407DE, size: 0x8, addend: 0x0, symName: __ZNSt5dequeISt4pairIiiESaIS1_EE17_M_reallocate_mapEmb, symObjAddr: 0x46A4, symBinAddr: 0x1000070C4, symSize: 0x240 }
  - { offsetInCU: 0x4087A, offset: 0x4087A, size: 0x8, addend: 0x0, symName: __ZNSt15__new_allocatorIPSt4pairIiiEE10deallocateEPS2_m, symObjAddr: 0x4638, symBinAddr: 0x100007058, symSize: 0x30 }
  - { offsetInCU: 0x40882, offset: 0x40882, size: 0x8, addend: 0x0, symName: __ZNSt5dequeISt4pairIiiESaIS1_EE11_S_max_sizeERKS2_, symObjAddr: 0x4668, symBinAddr: 0x100007088, symSize: 0x3C }
  - { offsetInCU: 0x40A45, offset: 0x40A45, size: 0x8, addend: 0x0, symName: __ZSt9addressofIPNSt8__detail15_Hash_node_baseEEPT_RS3_, symObjAddr: 0x461C, symBinAddr: 0x10000703C, symSize: 0x1C }
  - { offsetInCU: 0x40A4D, offset: 0x40A4D, size: 0x8, addend: 0x0, symName: __ZNSt15__new_allocatorIPSt4pairIiiEE10deallocateEPS2_m, symObjAddr: 0x4638, symBinAddr: 0x100007058, symSize: 0x30 }
  - { offsetInCU: 0x40A2B, offset: 0x40A2B, size: 0x8, addend: 0x0, symName: __ZNSt19__ptr_traits_ptr_toIPNSt8__detail10_Hash_nodeISt4pairIKcS2_IiiEELb0EEES6_Lb0EE10pointer_toERS6_, symObjAddr: 0x4600, symBinAddr: 0x100007020, symSize: 0x1C }
  - { offsetInCU: 0x40A33, offset: 0x40A33, size: 0x8, addend: 0x0, symName: __ZSt9addressofIPNSt8__detail15_Hash_node_baseEEPT_RS3_, symObjAddr: 0x461C, symBinAddr: 0x10000703C, symSize: 0x1C }
  - { offsetInCU: 0x40AC0, offset: 0x40AC0, size: 0x8, addend: 0x0, symName: __ZSt10destroy_atISt4pairIKcS0_IiiEEEvPT_, symObjAddr: 0x45EC, symBinAddr: 0x10000700C, symSize: 0x14 }
  - { offsetInCU: 0x40AC8, offset: 0x40AC8, size: 0x8, addend: 0x0, symName: __ZNSt19__ptr_traits_ptr_toIPNSt8__detail10_Hash_nodeISt4pairIKcS2_IiiEELb0EEES6_Lb0EE10pointer_toERS6_, symObjAddr: 0x4600, symBinAddr: 0x100007020, symSize: 0x1C }
  - { offsetInCU: 0x40AA2, offset: 0x40AA2, size: 0x8, addend: 0x0, symName: __ZNSt8__detail21_Hashtable_ebo_helperILi0ESaINS_10_Hash_nodeISt4pairIKcS2_IiiEELb0EEEELb1EE6_M_getEv, symObjAddr: 0x45D8, symBinAddr: 0x100006FF8, symSize: 0x14 }
  - { offsetInCU: 0x40AAA, offset: 0x40AAA, size: 0x8, addend: 0x0, symName: __ZSt10destroy_atISt4pairIKcS0_IiiEEEvPT_, symObjAddr: 0x45EC, symBinAddr: 0x10000700C, symSize: 0x14 }
  - { offsetInCU: 0x40AD3, offset: 0x40AD3, size: 0x8, addend: 0x0, symName: __ZNSt10_HashtableIcSt4pairIKcS0_IiiEESaIS3_ENSt8__detail10_Select1stESt8equal_toIcESt4hashIcENS5_18_Mod_range_hashingENS5_20_Default_ranged_hashENS5_20_Prime_rehash_policyENS5_17_Hashtable_traitsILb0ELb0ELb1EEEE9_M_insertIRKS3_NS5_10_AllocNodeISaINS5_10_Hash_nodeIS3_Lb0EEEEEEEES0_INS5_14_Node_iteratorIS3_Lb0ELb0EEEbEOT_RKT0_St17integral_constantIbLb1EE, symObjAddr: 0x4594, symBinAddr: 0x100006FB4, symSize: 0x44 }
  - { offsetInCU: 0x40ADB, offset: 0x40ADB, size: 0x8, addend: 0x0, symName: __ZNSt8__detail21_Hashtable_ebo_helperILi0ESaINS_10_Hash_nodeISt4pairIKcS2_IiiEELb0EEEELb1EE6_M_getEv, symObjAddr: 0x45D8, symBinAddr: 0x100006FF8, symSize: 0x14 }
  - { offsetInCU: 0x40B55, offset: 0x40B55, size: 0x8, addend: 0x0, symName: __ZNSt8__detail16_Hashtable_allocISaINS_10_Hash_nodeISt4pairIKcS2_IiiEELb0EEEEE19_M_allocate_bucketsEm, symObjAddr: 0x4488, symBinAddr: 0x100006EA8, symSize: 0x10C }
  - { offsetInCU: 0x40B5D, offset: 0x40B5D, size: 0x8, addend: 0x0, symName: __ZNSt10_HashtableIcSt4pairIKcS0_IiiEESaIS3_ENSt8__detail10_Select1stESt8equal_toIcESt4hashIcENS5_18_Mod_range_hashingENS5_20_Default_ranged_hashENS5_20_Prime_rehash_policyENS5_17_Hashtable_traitsILb0ELb0ELb1EEEE9_M_insertIRKS3_NS5_10_AllocNodeISaINS5_10_Hash_nodeIS3_Lb0EEEEEEEES0_INS5_14_Node_iteratorIS3_Lb0ELb0EEEbEOT_RKT0_St17integral_constantIbLb1EE, symObjAddr: 0x4594, symBinAddr: 0x100006FB4, symSize: 0x44 }
  - { offsetInCU: 0x40D78, offset: 0x40D78, size: 0x8, addend: 0x0, symName: __ZNSt27_Enable_default_constructorILb1ENSt8__detail15_Hash_node_baseEEC2ESt31_Enable_default_constructor_tag, symObjAddr: 0x4470, symBinAddr: 0x100006E90, symSize: 0x18 }
  - { offsetInCU: 0x40D80, offset: 0x40D80, size: 0x8, addend: 0x0, symName: __ZNSt8__detail16_Hashtable_allocISaINS_10_Hash_nodeISt4pairIKcS2_IiiEELb0EEEEE19_M_allocate_bucketsEm, symObjAddr: 0x4488, symBinAddr: 0x100006EA8, symSize: 0x10C }
  - { offsetInCU: 0x40DDC, offset: 0x40DDC, size: 0x8, addend: 0x0, symName: __ZNSt8__detail16_Hashtable_allocISaINS_10_Hash_nodeISt4pairIKcS2_IiiEELb0EEEEEC2IS7_EEOT_, symObjAddr: 0x4440, symBinAddr: 0x100006E60, symSize: 0x30 }
  - { offsetInCU: 0x40DE4, offset: 0x40DE4, size: 0x8, addend: 0x0, symName: __ZNSt27_Enable_default_constructorILb1ENSt8__detail15_Hash_node_baseEEC2ESt31_Enable_default_constructor_tag, symObjAddr: 0x4470, symBinAddr: 0x100006E90, symSize: 0x18 }
  - { offsetInCU: 0x40ECC, offset: 0x40ECC, size: 0x8, addend: 0x0, symName: __ZNSt8__detail15_Hashtable_baseIcSt4pairIKcS1_IiiEENS_10_Select1stESt8equal_toIcESt4hashIcENS_18_Mod_range_hashingENS_20_Default_ranged_hashENS_17_Hashtable_traitsILb0ELb0ELb1EEEEC2ERKS9_RKS7_, symObjAddr: 0x4408, symBinAddr: 0x100006E28, symSize: 0x38 }
  - { offsetInCU: 0x40ED4, offset: 0x40ED4, size: 0x8, addend: 0x0, symName: __ZNSt8__detail16_Hashtable_allocISaINS_10_Hash_nodeISt4pairIKcS2_IiiEELb0EEEEEC2IS7_EEOT_, symObjAddr: 0x4440, symBinAddr: 0x100006E60, symSize: 0x30 }
  - { offsetInCU: 0x40ED0, offset: 0x40ED0, size: 0x8, addend: 0x0, symName: __ZNSt6vectorIcSaIcEEC1ERKS1_, symObjAddr: 0x4314, symBinAddr: 0x100006D34, symSize: 0xF4 }
  - { offsetInCU: 0x40ED8, offset: 0x40ED8, size: 0x8, addend: 0x0, symName: __ZNSt8__detail15_Hashtable_baseIcSt4pairIKcS1_IiiEENS_10_Select1stESt8equal_toIcESt4hashIcENS_18_Mod_range_hashingENS_20_Default_ranged_hashENS_17_Hashtable_traitsILb0ELb0ELb1EEEEC2ERKS9_RKS7_, symObjAddr: 0x4408, symBinAddr: 0x100006E28, symSize: 0x38 }
  - { offsetInCU: 0x41084, offset: 0x41084, size: 0x8, addend: 0x0, symName: __ZSt12construct_atISt6vectorIcSaIcEEJRKS2_EEDTgsnwcvPvLi0E_T_pispcl7declvalIT0_EEEEPS6_DpOS7_, symObjAddr: 0x4294, symBinAddr: 0x100006CB4, symSize: 0x80 }
  - { offsetInCU: 0x4108C, offset: 0x4108C, size: 0x8, addend: 0x0, symName: __ZNSt6vectorIcSaIcEEC1ERKS1_, symObjAddr: 0x4314, symBinAddr: 0x100006D34, symSize: 0xF4 }
  - { offsetInCU: 0x410AB, offset: 0x410AB, size: 0x8, addend: 0x0, symName: __ZSt7forwardIRKSt6vectorIcSaIcEEEOT_RNSt16remove_referenceIS5_E4typeE, symObjAddr: 0x4280, symBinAddr: 0x100006CA0, symSize: 0x14 }
  - { offsetInCU: 0x410B3, offset: 0x410B3, size: 0x8, addend: 0x0, symName: __ZSt12construct_atISt6vectorIcSaIcEEJRKS2_EEDTgsnwcvPvLi0E_T_pispcl7declvalIT0_EEEEPS6_DpOS7_, symObjAddr: 0x4294, symBinAddr: 0x100006CB4, symSize: 0x80 }
  - { offsetInCU: 0x4113E, offset: 0x4113E, size: 0x8, addend: 0x0, symName: __ZSt9__fill_a1IPSt6vectorIcSaIcEES2_EN9__gnu_cxx11__enable_ifIXntsrSt11__is_scalarIT0_E7__valueEvE6__typeET_SB_RKS7_, symObjAddr: 0x4230, symBinAddr: 0x100006C50, symSize: 0x50 }
  - { offsetInCU: 0x41146, offset: 0x41146, size: 0x8, addend: 0x0, symName: __ZSt7forwardIRKSt6vectorIcSaIcEEEOT_RNSt16remove_referenceIS5_E4typeE, symObjAddr: 0x4280, symBinAddr: 0x100006CA0, symSize: 0x14 }
  - { offsetInCU: 0x41112, offset: 0x41112, size: 0x8, addend: 0x0, symName: __ZNK9__gnu_cxx17__normal_iteratorIPSt6vectorIcSaIcEES1_IS3_SaIS3_EEE4baseEv, symObjAddr: 0x421C, symBinAddr: 0x100006C3C, symSize: 0x14 }
  - { offsetInCU: 0x4111A, offset: 0x4111A, size: 0x8, addend: 0x0, symName: __ZSt9__fill_a1IPSt6vectorIcSaIcEES2_EN9__gnu_cxx11__enable_ifIXntsrSt11__is_scalarIT0_E7__valueEvE6__typeET_SB_RKS7_, symObjAddr: 0x4230, symBinAddr: 0x100006C50, symSize: 0x50 }
  - { offsetInCU: 0x41143, offset: 0x41143, size: 0x8, addend: 0x0, symName: __ZNSt12_Vector_baseISt6vectorIcSaIcEESaIS2_EE11_M_allocateEm, symObjAddr: 0x4130, symBinAddr: 0x100006B50, symSize: 0xEC }
  - { offsetInCU: 0x4114B, offset: 0x4114B, size: 0x8, addend: 0x0, symName: __ZNK9__gnu_cxx17__normal_iteratorIPSt6vectorIcSaIcEES1_IS3_SaIS3_EEE4baseEv, symObjAddr: 0x421C, symBinAddr: 0x100006C3C, symSize: 0x14 }
  - { offsetInCU: 0x41240, offset: 0x41240, size: 0x8, addend: 0x0, symName: __ZSt10destroy_atIcEvPT_, symObjAddr: 0x411C, symBinAddr: 0x100006B3C, symSize: 0x14 }
  - { offsetInCU: 0x41248, offset: 0x41248, size: 0x8, addend: 0x0, symName: __ZNSt12_Vector_baseISt6vectorIcSaIcEESaIS2_EE11_M_allocateEm, symObjAddr: 0x4130, symBinAddr: 0x100006B50, symSize: 0xEC }
  - { offsetInCU: 0x412A6, offset: 0x412A6, size: 0x8, addend: 0x0, symName: __ZSt6fill_nIPcmcET_S1_T0_RKT1_, symObjAddr: 0x40D4, symBinAddr: 0x100006AF4, symSize: 0x48 }
  - { offsetInCU: 0x412AE, offset: 0x412AE, size: 0x8, addend: 0x0, symName: __ZSt10destroy_atIcEvPT_, symObjAddr: 0x411C, symBinAddr: 0x100006B3C, symSize: 0x14 }
  - { offsetInCU: 0x41359, offset: 0x41359, size: 0x8, addend: 0x0, symName: __ZSt10destroy_atISt6vectorIcSaIcEEEvPT_, symObjAddr: 0x40B4, symBinAddr: 0x100006AD4, symSize: 0x20 }
  - { offsetInCU: 0x41361, offset: 0x41361, size: 0x8, addend: 0x0, symName: __ZSt6fill_nIPcmcET_S1_T0_RKT1_, symObjAddr: 0x40D4, symBinAddr: 0x100006AF4, symSize: 0x48 }
  - { offsetInCU: 0x41356, offset: 0x41356, size: 0x8, addend: 0x0, symName: __ZNSt15__new_allocatorIcE8allocateEmPKv, symObjAddr: 0x4050, symBinAddr: 0x100006A70, symSize: 0x64 }
  - { offsetInCU: 0x4135E, offset: 0x4135E, size: 0x8, addend: 0x0, symName: __ZSt10destroy_atISt6vectorIcSaIcEEEvPT_, symObjAddr: 0x40B4, symBinAddr: 0x100006AD4, symSize: 0x20 }
  - { offsetInCU: 0x4146A, offset: 0x4146A, size: 0x8, addend: 0x0, symName: __ZNSt8__detail19_Node_iterator_baseISt4pairIKcS1_IiiEELb0EEC2EPNS_10_Hash_nodeIS4_Lb0EEE, symObjAddr: 0x402C, symBinAddr: 0x100006A4C, symSize: 0x24 }
  - { offsetInCU: 0x41472, offset: 0x41472, size: 0x8, addend: 0x0, symName: __ZNSt15__new_allocatorIcE8allocateEmPKv, symObjAddr: 0x4050, symBinAddr: 0x100006A70, symSize: 0x64 }
  - { offsetInCU: 0x4144E, offset: 0x4144E, size: 0x8, addend: 0x0, symName: __ZNSt10_HashtableIcSt4pairIKcS0_IiiEESaIS3_ENSt8__detail10_Select1stESt8equal_toIcESt4hashIcENS5_18_Mod_range_hashingENS5_20_Default_ranged_hashENS5_20_Prime_rehash_policyENS5_17_Hashtable_traitsILb0ELb0ELb1EEEE13_M_rehash_auxEmSt17integral_constantIbLb1EE, symObjAddr: 0x3EC0, symBinAddr: 0x1000068E0, symSize: 0x16C }
  - { offsetInCU: 0x41456, offset: 0x41456, size: 0x8, addend: 0x0, symName: __ZNSt8__detail19_Node_iterator_baseISt4pairIKcS1_IiiEELb0EEC2EPNS_10_Hash_nodeIS4_Lb0EEE, symObjAddr: 0x402C, symBinAddr: 0x100006A4C, symSize: 0x24 }
  - { offsetInCU: 0x4168D, offset: 0x4168D, size: 0x8, addend: 0x0, symName: __ZSt12__to_addressINSt8__detail10_Hash_nodeISt4pairIKcS2_IiiEELb0EEEEPT_S8_, symObjAddr: 0x3EAC, symBinAddr: 0x1000068CC, symSize: 0x14 }
  - { offsetInCU: 0x41695, offset: 0x41695, size: 0x8, addend: 0x0, symName: __ZNSt10_HashtableIcSt4pairIKcS0_IiiEESaIS3_ENSt8__detail10_Select1stESt8equal_toIcESt4hashIcENS5_18_Mod_range_hashingENS5_20_Default_ranged_hashENS5_20_Prime_rehash_policyENS5_17_Hashtable_traitsILb0ELb0ELb1EEEE13_M_rehash_auxEmSt17integral_constantIbLb1EE, symObjAddr: 0x3EC0, symBinAddr: 0x1000068E0, symSize: 0x16C }
  - { offsetInCU: 0x416AD, offset: 0x416AD, size: 0x8, addend: 0x0, symName: __ZNSt10_Head_baseILm0ERKcLb0EEC2ES1_, symObjAddr: 0x3E88, symBinAddr: 0x1000068A8, symSize: 0x24 }
  - { offsetInCU: 0x416B5, offset: 0x416B5, size: 0x8, addend: 0x0, symName: __ZSt12__to_addressINSt8__detail10_Hash_nodeISt4pairIKcS2_IiiEELb0EEEEPT_S8_, symObjAddr: 0x3EAC, symBinAddr: 0x1000068CC, symSize: 0x14 }
  - { offsetInCU: 0x416C5, offset: 0x416C5, size: 0x8, addend: 0x0, symName: __ZN9__gnu_cxx16__aligned_bufferISt4pairIKcS1_IiiEEE6_M_ptrEv, symObjAddr: 0x3E6C, symBinAddr: 0x10000688C, symSize: 0x1C }
  - { offsetInCU: 0x416CD, offset: 0x416CD, size: 0x8, addend: 0x0, symName: __ZNSt10_Head_baseILm0ERKcLb0EEC2ES1_, symObjAddr: 0x3E88, symBinAddr: 0x1000068A8, symSize: 0x24 }
  - { offsetInCU: 0x416F6, offset: 0x416F6, size: 0x8, addend: 0x0, symName: __ZNKSt10_HashtableIcSt4pairIKcS0_IiiEESaIS3_ENSt8__detail10_Select1stESt8equal_toIcESt4hashIcENS5_18_Mod_range_hashingENS5_20_Default_ranged_hashENS5_20_Prime_rehash_policyENS5_17_Hashtable_traitsILb0ELb0ELb1EEEE15_M_bucket_indexERKNS5_16_Hash_node_valueIS3_Lb0EEE, symObjAddr: 0x3E3C, symBinAddr: 0x10000685C, symSize: 0x30 }
  - { offsetInCU: 0x416FE, offset: 0x416FE, size: 0x8, addend: 0x0, symName: __ZN9__gnu_cxx16__aligned_bufferISt4pairIKcS1_IiiEEE6_M_ptrEv, symObjAddr: 0x3E6C, symBinAddr: 0x10000688C, symSize: 0x1C }
  - { offsetInCU: 0x4173C, offset: 0x4173C, size: 0x8, addend: 0x0, symName: __ZNKSt8__detail15_Hashtable_baseIcSt4pairIKcS1_IiiEENS_10_Select1stESt8equal_toIcESt4hashIcENS_18_Mod_range_hashingENS_20_Default_ranged_hashENS_17_Hashtable_traitsILb0ELb0ELb1EEEE9_M_equalsERS2_mRKNS_16_Hash_node_valueIS4_Lb0EEE, symObjAddr: 0x3DD4, symBinAddr: 0x1000067F4, symSize: 0x68 }
  - { offsetInCU: 0x41744, offset: 0x41744, size: 0x8, addend: 0x0, symName: __ZNKSt10_HashtableIcSt4pairIKcS0_IiiEESaIS3_ENSt8__detail10_Select1stESt8equal_toIcESt4hashIcENS5_18_Mod_range_hashingENS5_20_Default_ranged_hashENS5_20_Prime_rehash_policyENS5_17_Hashtable_traitsILb0ELb0ELb1EEEE15_M_bucket_indexERKNS5_16_Hash_node_valueIS3_Lb0EEE, symObjAddr: 0x3E3C, symBinAddr: 0x10000685C, symSize: 0x30 }
  - { offsetInCU: 0x417AC, offset: 0x417AC, size: 0x8, addend: 0x0, symName: __ZNKSt8__detail21_Hashtable_ebo_helperILi1ESt4hashIcELb1EE7_M_cgetEv, symObjAddr: 0x3DC0, symBinAddr: 0x1000067E0, symSize: 0x14 }
  - { offsetInCU: 0x417B4, offset: 0x417B4, size: 0x8, addend: 0x0, symName: __ZNKSt8__detail15_Hashtable_baseIcSt4pairIKcS1_IiiEENS_10_Select1stESt8equal_toIcESt4hashIcENS_18_Mod_range_hashingENS_20_Default_ranged_hashENS_17_Hashtable_traitsILb0ELb0ELb1EEEE9_M_equalsERS2_mRKNS_16_Hash_node_valueIS4_Lb0EEE, symObjAddr: 0x3DD4, symBinAddr: 0x1000067F4, symSize: 0x68 }
  - { offsetInCU: 0x417DD, offset: 0x417DD, size: 0x8, addend: 0x0, symName: __ZNSt15_Deque_iteratorISt4pairIiiERS1_PS1_EmmEv, symObjAddr: 0x3D54, symBinAddr: 0x100006774, symSize: 0x6C }
  - { offsetInCU: 0x417E5, offset: 0x417E5, size: 0x8, addend: 0x0, symName: __ZNKSt8__detail21_Hashtable_ebo_helperILi1ESt4hashIcELb1EE7_M_cgetEv, symObjAddr: 0x3DC0, symBinAddr: 0x1000067E0, symSize: 0x14 }
  - { offsetInCU: 0x4180E, offset: 0x4180E, size: 0x8, addend: 0x0, symName: __ZNSt5dequeISt4pairIiiESaIS1_EE22_M_reserve_map_at_backEm, symObjAddr: 0x3CF4, symBinAddr: 0x100006714, symSize: 0x60 }
  - { offsetInCU: 0x41816, offset: 0x41816, size: 0x8, addend: 0x0, symName: __ZNSt15_Deque_iteratorISt4pairIiiERS1_PS1_EmmEv, symObjAddr: 0x3D54, symBinAddr: 0x100006774, symSize: 0x6C }
  - { offsetInCU: 0x41854, offset: 0x41854, size: 0x8, addend: 0x0, symName: __ZNKSt5dequeISt4pairIiiESaIS1_EE8max_sizeEv, symObjAddr: 0x3CD4, symBinAddr: 0x1000066F4, symSize: 0x20 }
  - { offsetInCU: 0x4185C, offset: 0x4185C, size: 0x8, addend: 0x0, symName: __ZNSt5dequeISt4pairIiiESaIS1_EE22_M_reserve_map_at_backEm, symObjAddr: 0x3CF4, symBinAddr: 0x100006714, symSize: 0x60 }
  - { offsetInCU: 0x41917, offset: 0x41917, size: 0x8, addend: 0x0, symName: __ZSt12construct_atISt4pairIiiEJS1_EEDTgsnwcvPvLi0E_T_pispcl7declvalIT0_EEEEPS3_DpOS4_, symObjAddr: 0x3C8C, symBinAddr: 0x1000066AC, symSize: 0x48 }
  - { offsetInCU: 0x4191F, offset: 0x4191F, size: 0x8, addend: 0x0, symName: __ZNKSt5dequeISt4pairIiiESaIS1_EE8max_sizeEv, symObjAddr: 0x3CD4, symBinAddr: 0x1000066F4, symSize: 0x20 }
  - { offsetInCU: 0x41961, offset: 0x41961, size: 0x8, addend: 0x0, symName: __ZNKSt11_Deque_baseISt4pairIiiESaIS1_EE19_M_get_Tp_allocatorEv, symObjAddr: 0x3C78, symBinAddr: 0x100006698, symSize: 0x14 }
  - { offsetInCU: 0x41969, offset: 0x41969, size: 0x8, addend: 0x0, symName: __ZSt12construct_atISt4pairIiiEJS1_EEDTgsnwcvPvLi0E_T_pispcl7declvalIT0_EEEEPS3_DpOS4_, symObjAddr: 0x3C8C, symBinAddr: 0x1000066AC, symSize: 0x48 }
  - { offsetInCU: 0x419D4, offset: 0x419D4, size: 0x8, addend: 0x0, symName: __ZNSt11_Deque_baseISt4pairIiiESaIS1_EE16_M_allocate_nodeEv, symObjAddr: 0x3BBC, symBinAddr: 0x1000065DC, symSize: 0xBC }
  - { offsetInCU: 0x419DC, offset: 0x419DC, size: 0x8, addend: 0x0, symName: __ZNKSt11_Deque_baseISt4pairIiiESaIS1_EE19_M_get_Tp_allocatorEv, symObjAddr: 0x3C78, symBinAddr: 0x100006698, symSize: 0x14 }
  - { offsetInCU: 0x41AEA, offset: 0x41AEA, size: 0x8, addend: 0x0, symName: __ZNSt15_Deque_iteratorISt4pairIiiERS1_PS1_EC1Ev, symObjAddr: 0x3B88, symBinAddr: 0x1000065A8, symSize: 0x34 }
  - { offsetInCU: 0x41AF2, offset: 0x41AF2, size: 0x8, addend: 0x0, symName: __ZNSt11_Deque_baseISt4pairIiiESaIS1_EE16_M_allocate_nodeEv, symObjAddr: 0x3BBC, symBinAddr: 0x1000065DC, symSize: 0xBC }
  - { offsetInCU: 0x41BA2, offset: 0x41BA2, size: 0x8, addend: 0x0, symName: __ZNSt19__ptr_traits_ptr_toIPPNSt8__detail15_Hash_node_baseES2_Lb0EE10pointer_toERS2_, symObjAddr: 0x3B6C, symBinAddr: 0x10000658C, symSize: 0x1C }
  - { offsetInCU: 0x41BAA, offset: 0x41BAA, size: 0x8, addend: 0x0, symName: __ZNSt15_Deque_iteratorISt4pairIiiERS1_PS1_EC1Ev, symObjAddr: 0x3B88, symBinAddr: 0x1000065A8, symSize: 0x34 }
  - { offsetInCU: 0x41BD5, offset: 0x41BD5, size: 0x8, addend: 0x0, symName: __ZNSt8__detail16_Hashtable_allocISaINS_10_Hash_nodeISt4pairIKcS2_IiiEELb0EEEEE22_M_deallocate_node_ptrEPS6_, symObjAddr: 0x3ADC, symBinAddr: 0x1000064FC, symSize: 0x90 }
  - { offsetInCU: 0x41BDD, offset: 0x41BDD, size: 0x8, addend: 0x0, symName: __ZNSt19__ptr_traits_ptr_toIPPNSt8__detail15_Hash_node_baseES2_Lb0EE10pointer_toERS2_, symObjAddr: 0x3B6C, symBinAddr: 0x10000658C, symSize: 0x1C }
  - { offsetInCU: 0x41CF3, offset: 0x41CF3, size: 0x8, addend: 0x0, symName: __ZNSt8__detail16_Hashtable_allocISaINS_10_Hash_nodeISt4pairIKcS2_IiiEELb0EEEEE17_M_node_allocatorEv, symObjAddr: 0x3AC0, symBinAddr: 0x1000064E0, symSize: 0x1C }
  - { offsetInCU: 0x41CFB, offset: 0x41CFB, size: 0x8, addend: 0x0, symName: __ZNSt8__detail16_Hashtable_allocISaINS_10_Hash_nodeISt4pairIKcS2_IiiEELb0EEEEE22_M_deallocate_node_ptrEPS6_, symObjAddr: 0x3ADC, symBinAddr: 0x1000064FC, symSize: 0x90 }
  - { offsetInCU: 0x41D24, offset: 0x41D24, size: 0x8, addend: 0x0, symName: __ZNSt8__detail12_Insert_baseIcSt4pairIKcS1_IiiEESaIS4_ENS_10_Select1stESt8equal_toIcESt4hashIcENS_18_Mod_range_hashingENS_20_Default_ranged_hashENS_20_Prime_rehash_policyENS_17_Hashtable_traitsILb0ELb0ELb1EEEE15_M_insert_rangeIPKS4_NS_10_AllocNodeISaINS_10_Hash_nodeIS4_Lb0EEEEEEEEvT_SP_RKT0_St17integral_constantIbLb1EE, symObjAddr: 0x3A4C, symBinAddr: 0x10000646C, symSize: 0x74 }
  - { offsetInCU: 0x41D2C, offset: 0x41D2C, size: 0x8, addend: 0x0, symName: __ZNSt8__detail16_Hashtable_allocISaINS_10_Hash_nodeISt4pairIKcS2_IiiEELb0EEEEE17_M_node_allocatorEv, symObjAddr: 0x3AC0, symBinAddr: 0x1000064E0, symSize: 0x1C }
  - { offsetInCU: 0x41E6C, offset: 0x41E6C, size: 0x8, addend: 0x0, symName: __ZNSt8__detail10_AllocNodeISaINS_10_Hash_nodeISt4pairIKcS2_IiiEELb0EEEEEC1ERNS_16_Hashtable_allocIS7_EE, symObjAddr: 0x3A28, symBinAddr: 0x100006448, symSize: 0x24 }
  - { offsetInCU: 0x41E74, offset: 0x41E74, size: 0x8, addend: 0x0, symName: __ZNSt8__detail12_Insert_baseIcSt4pairIKcS1_IiiEESaIS4_ENS_10_Select1stESt8equal_toIcESt4hashIcENS_18_Mod_range_hashingENS_20_Default_ranged_hashENS_20_Prime_rehash_policyENS_17_Hashtable_traitsILb0ELb0ELb1EEEE15_M_insert_rangeIPKS4_NS_10_AllocNodeISaINS_10_Hash_nodeIS4_Lb0EEEEEEEEvT_SP_RKT0_St17integral_constantIbLb1EE, symObjAddr: 0x3A4C, symBinAddr: 0x10000646C, symSize: 0x74 }
  - { offsetInCU: 0x41E41, offset: 0x41E41, size: 0x8, addend: 0x0, symName: __ZNSt8__detail12_Insert_baseIcSt4pairIKcS1_IiiEESaIS4_ENS_10_Select1stESt8equal_toIcESt4hashIcENS_18_Mod_range_hashingENS_20_Default_ranged_hashENS_20_Prime_rehash_policyENS_17_Hashtable_traitsILb0ELb0ELb1EEEE20_M_conjure_hashtableEv, symObjAddr: 0x3A14, symBinAddr: 0x100006434, symSize: 0x14 }
  - { offsetInCU: 0x41E49, offset: 0x41E49, size: 0x8, addend: 0x0, symName: __ZNSt8__detail10_AllocNodeISaINS_10_Hash_nodeISt4pairIKcS2_IiiEELb0EEEEEC1ERNS_16_Hashtable_allocIS7_EE, symObjAddr: 0x3A28, symBinAddr: 0x100006448, symSize: 0x24 }
  - { offsetInCU: 0x41E72, offset: 0x41E72, size: 0x8, addend: 0x0, symName: __ZNSt10_HashtableIcSt4pairIKcS0_IiiEESaIS3_ENSt8__detail10_Select1stESt8equal_toIcESt4hashIcENS5_18_Mod_range_hashingENS5_20_Default_ranged_hashENS5_20_Prime_rehash_policyENS5_17_Hashtable_traitsILb0ELb0ELb1EEEE19_M_allocate_bucketsEm, symObjAddr: 0x39BC, symBinAddr: 0x1000063DC, symSize: 0x58 }
  - { offsetInCU: 0x41E7A, offset: 0x41E7A, size: 0x8, addend: 0x0, symName: __ZNSt8__detail12_Insert_baseIcSt4pairIKcS1_IiiEESaIS4_ENS_10_Select1stESt8equal_toIcESt4hashIcENS_18_Mod_range_hashingENS_20_Default_ranged_hashENS_20_Prime_rehash_policyENS_17_Hashtable_traitsILb0ELb0ELb1EEEE20_M_conjure_hashtableEv, symObjAddr: 0x3A14, symBinAddr: 0x100006434, symSize: 0x14 }
  - { offsetInCU: 0x41FEF, offset: 0x41FEF, size: 0x8, addend: 0x0, symName: __ZNSt10_HashtableIcSt4pairIKcS0_IiiEESaIS3_ENSt8__detail10_Select1stESt8equal_toIcESt4hashIcENS5_18_Mod_range_hashingENS5_20_Default_ranged_hashENS5_20_Prime_rehash_policyENS5_17_Hashtable_traitsILb0ELb0ELb1EEEEC1ERKSA_RKS8_RKS4_, symObjAddr: 0x3900, symBinAddr: 0x100006320, symSize: 0xBC }
  - { offsetInCU: 0x41FF7, offset: 0x41FF7, size: 0x8, addend: 0x0, symName: __ZNSt10_HashtableIcSt4pairIKcS0_IiiEESaIS3_ENSt8__detail10_Select1stESt8equal_toIcESt4hashIcENS5_18_Mod_range_hashingENS5_20_Default_ranged_hashENS5_20_Prime_rehash_policyENS5_17_Hashtable_traitsILb0ELb0ELb1EEEE19_M_allocate_bucketsEm, symObjAddr: 0x39BC, symBinAddr: 0x1000063DC, symSize: 0x58 }
  - { offsetInCU: 0x42042, offset: 0x42042, size: 0x8, addend: 0x0, symName: __ZSt8__fill_aIPSt6vectorIcSaIcEES2_EvT_S4_RKT0_, symObjAddr: 0x38D0, symBinAddr: 0x1000062F0, symSize: 0x30 }
  - { offsetInCU: 0x4204A, offset: 0x4204A, size: 0x8, addend: 0x0, symName: __ZNSt10_HashtableIcSt4pairIKcS0_IiiEESaIS3_ENSt8__detail10_Select1stESt8equal_toIcESt4hashIcENS5_18_Mod_range_hashingENS5_20_Default_ranged_hashENS5_20_Prime_rehash_policyENS5_17_Hashtable_traitsILb0ELb0ELb1EEEEC1ERKSA_RKS8_RKS4_, symObjAddr: 0x3900, symBinAddr: 0x100006320, symSize: 0xBC }
  - { offsetInCU: 0x4205C, offset: 0x4205C, size: 0x8, addend: 0x0, symName: __ZNSt22__uninitialized_fill_nILb0EE15__uninit_fill_nIPSt6vectorIcSaIcEEmS4_EET_S6_T0_RKT1_, symObjAddr: 0x38A4, symBinAddr: 0x1000062C4, symSize: 0x2C }
  - { offsetInCU: 0x42064, offset: 0x42064, size: 0x8, addend: 0x0, symName: __ZSt8__fill_aIPSt6vectorIcSaIcEES2_EvT_S4_RKT0_, symObjAddr: 0x38D0, symBinAddr: 0x1000062F0, symSize: 0x30 }
  - { offsetInCU: 0x42165, offset: 0x42165, size: 0x8, addend: 0x0, symName: __ZSt10_ConstructISt6vectorIcSaIcEEJRKS2_EEvPT_DpOT0_, symObjAddr: 0x37FC, symBinAddr: 0x10000621C, symSize: 0xA8 }
  - { offsetInCU: 0x4216D, offset: 0x4216D, size: 0x8, addend: 0x0, symName: __ZNSt22__uninitialized_fill_nILb0EE15__uninit_fill_nIPSt6vectorIcSaIcEEmS4_EET_S6_T0_RKT1_, symObjAddr: 0x38A4, symBinAddr: 0x1000062C4, symSize: 0x2C }
  - { offsetInCU: 0x42200, offset: 0x42200, size: 0x8, addend: 0x0, symName: __ZSt9__fill_a1IPSt6vectorIcSaIcEES0_IS2_SaIS2_EES2_EvN9__gnu_cxx17__normal_iteratorIT_T0_EESA_RKT1_, symObjAddr: 0x37AC, symBinAddr: 0x1000061CC, symSize: 0x50 }
  - { offsetInCU: 0x42208, offset: 0x42208, size: 0x8, addend: 0x0, symName: __ZSt10_ConstructISt6vectorIcSaIcEEJRKS2_EEvPT_DpOT0_, symObjAddr: 0x37FC, symBinAddr: 0x10000621C, symSize: 0xA8 }
  - { offsetInCU: 0x421D1, offset: 0x421D1, size: 0x8, addend: 0x0, symName: __ZNSt12_Vector_baseISt6vectorIcSaIcEESaIS2_EE17_M_create_storageEm, symObjAddr: 0x3740, symBinAddr: 0x100006160, symSize: 0x6C }
  - { offsetInCU: 0x421D9, offset: 0x421D9, size: 0x8, addend: 0x0, symName: __ZSt9__fill_a1IPSt6vectorIcSaIcEES0_IS2_SaIS2_EES2_EvN9__gnu_cxx17__normal_iteratorIT_T0_EESA_RKT1_, symObjAddr: 0x37AC, symBinAddr: 0x1000061CC, symSize: 0x50 }
  - { offsetInCU: 0x42287, offset: 0x42287, size: 0x8, addend: 0x0, symName: __ZNSt12_Vector_baseISt6vectorIcSaIcEESaIS2_EE12_Vector_implC1ERKS3_, symObjAddr: 0x36F4, symBinAddr: 0x100006114, symSize: 0x4C }
  - { offsetInCU: 0x4228F, offset: 0x4228F, size: 0x8, addend: 0x0, symName: __ZNSt12_Vector_baseISt6vectorIcSaIcEESaIS2_EE17_M_create_storageEm, symObjAddr: 0x3740, symBinAddr: 0x100006160, symSize: 0x6C }
  - { offsetInCU: 0x42316, offset: 0x42316, size: 0x8, addend: 0x0, symName: __ZNSt6vectorIS_IcSaIcEESaIS1_EE11_S_max_sizeERKS2_, symObjAddr: 0x36B0, symBinAddr: 0x1000060D0, symSize: 0x44 }
  - { offsetInCU: 0x4231E, offset: 0x4231E, size: 0x8, addend: 0x0, symName: __ZNSt12_Vector_baseISt6vectorIcSaIcEESaIS2_EE12_Vector_implC1ERKS3_, symObjAddr: 0x36F4, symBinAddr: 0x100006114, symSize: 0x4C }
  - { offsetInCU: 0x423DE, offset: 0x423DE, size: 0x8, addend: 0x0, symName: __ZSt8_DestroyIcEvPT_, symObjAddr: 0x3690, symBinAddr: 0x1000060B0, symSize: 0x20 }
  - { offsetInCU: 0x423E6, offset: 0x423E6, size: 0x8, addend: 0x0, symName: __ZNSt6vectorIS_IcSaIcEESaIS1_EE11_S_max_sizeERKS2_, symObjAddr: 0x36B0, symBinAddr: 0x1000060D0, symSize: 0x44 }
  - { offsetInCU: 0x423FE, offset: 0x423FE, size: 0x8, addend: 0x0, symName: __ZNSt22__uninitialized_fill_nILb1EE15__uninit_fill_nIPcmcEET_S3_T0_RKT1_, symObjAddr: 0x3664, symBinAddr: 0x100006084, symSize: 0x2C }
  - { offsetInCU: 0x42406, offset: 0x42406, size: 0x8, addend: 0x0, symName: __ZSt8_DestroyIcEvPT_, symObjAddr: 0x3690, symBinAddr: 0x1000060B0, symSize: 0x20 }
  - { offsetInCU: 0x424C4, offset: 0x424C4, size: 0x8, addend: 0x0, symName: __ZSt10_ConstructIcJRKcEEvPT_DpOT0_, symObjAddr: 0x35F4, symBinAddr: 0x100006014, symSize: 0x70 }
  - { offsetInCU: 0x424CC, offset: 0x424CC, size: 0x8, addend: 0x0, symName: __ZNSt22__uninitialized_fill_nILb1EE15__uninit_fill_nIPcmcEET_S3_T0_RKT1_, symObjAddr: 0x3664, symBinAddr: 0x100006084, symSize: 0x2C }
  - { offsetInCU: 0x4252B, offset: 0x4252B, size: 0x8, addend: 0x0, symName: __ZSt8_DestroyISt6vectorIcSaIcEEEvPT_, symObjAddr: 0x35D4, symBinAddr: 0x100005FF4, symSize: 0x20 }
  - { offsetInCU: 0x42533, offset: 0x42533, size: 0x8, addend: 0x0, symName: __ZSt10_ConstructIcJRKcEEvPT_DpOT0_, symObjAddr: 0x35F4, symBinAddr: 0x100006014, symSize: 0x70 }
  - { offsetInCU: 0x4257D, offset: 0x4257D, size: 0x8, addend: 0x0, symName: __ZSt11__addressofISt6vectorIcSaIcEEEPT_RS3_, symObjAddr: 0x35C0, symBinAddr: 0x100005FE0, symSize: 0x14 }
  - { offsetInCU: 0x42585, offset: 0x42585, size: 0x8, addend: 0x0, symName: __ZSt8_DestroyISt6vectorIcSaIcEEEvPT_, symObjAddr: 0x35D4, symBinAddr: 0x100005FF4, symSize: 0x20 }
  - { offsetInCU: 0x42579, offset: 0x42579, size: 0x8, addend: 0x0, symName: __ZNSt15__new_allocatorISt6vectorIcSaIcEEE10deallocateEPS2_m, symObjAddr: 0x3584, symBinAddr: 0x100005FA4, symSize: 0x3C }
  - { offsetInCU: 0x42581, offset: 0x42581, size: 0x8, addend: 0x0, symName: __ZSt11__addressofISt6vectorIcSaIcEEEPT_RS3_, symObjAddr: 0x35C0, symBinAddr: 0x100005FE0, symSize: 0x14 }
  - { offsetInCU: 0x425FE, offset: 0x425FE, size: 0x8, addend: 0x0, symName: __ZNSt15__new_allocatorIcE10deallocateEPcm, symObjAddr: 0x355C, symBinAddr: 0x100005F7C, symSize: 0x28 }
  - { offsetInCU: 0x42606, offset: 0x42606, size: 0x8, addend: 0x0, symName: __ZNSt15__new_allocatorISt6vectorIcSaIcEEE10deallocateEPS2_m, symObjAddr: 0x3584, symBinAddr: 0x100005FA4, symSize: 0x3C }
  - { offsetInCU: 0x42689, offset: 0x42689, size: 0x8, addend: 0x0, symName: __ZSt11__addressofIcEPT_RS0_, symObjAddr: 0x3548, symBinAddr: 0x100005F68, symSize: 0x14 }
  - { offsetInCU: 0x42691, offset: 0x42691, size: 0x8, addend: 0x0, symName: __ZNSt15__new_allocatorIcE10deallocateEPcm, symObjAddr: 0x355C, symBinAddr: 0x100005F7C, symSize: 0x28 }
  - { offsetInCU: 0x42728, offset: 0x42728, size: 0x8, addend: 0x0, symName: __ZNSt8__detail14_Node_iteratorISt4pairIKcS1_IiiEELb0ELb0EEC1EPNS_10_Hash_nodeIS4_Lb0EEE, symObjAddr: 0x3520, symBinAddr: 0x100005F40, symSize: 0x28 }
  - { offsetInCU: 0x42730, offset: 0x42730, size: 0x8, addend: 0x0, symName: __ZSt11__addressofIcEPT_RS0_, symObjAddr: 0x3548, symBinAddr: 0x100005F68, symSize: 0x14 }
  - { offsetInCU: 0x4270D, offset: 0x4270D, size: 0x8, addend: 0x0, symName: __ZNSt10_HashtableIcSt4pairIKcS0_IiiEESaIS3_ENSt8__detail10_Select1stESt8equal_toIcESt4hashIcENS5_18_Mod_range_hashingENS5_20_Default_ranged_hashENS5_20_Prime_rehash_policyENS5_17_Hashtable_traitsILb0ELb0ELb1EEEE22_M_insert_bucket_beginEmPNS5_10_Hash_nodeIS3_Lb0EEE, symObjAddr: 0x3414, symBinAddr: 0x100005E34, symSize: 0x10C }
  - { offsetInCU: 0x42715, offset: 0x42715, size: 0x8, addend: 0x0, symName: __ZNSt8__detail14_Node_iteratorISt4pairIKcS1_IiiEELb0ELb0EEC1EPNS_10_Hash_nodeIS4_Lb0EEE, symObjAddr: 0x3520, symBinAddr: 0x100005F40, symSize: 0x28 }
  - { offsetInCU: 0x42768, offset: 0x42768, size: 0x8, addend: 0x0, symName: __ZNKSt8__detail15_Hash_code_baseIcSt4pairIKcS1_IiiEENS_10_Select1stESt4hashIcENS_18_Mod_range_hashingENS_20_Default_ranged_hashELb0EE13_M_store_codeERNS_21_Hash_node_code_cacheILb0EEEm, symObjAddr: 0x33F8, symBinAddr: 0x100005E18, symSize: 0x1C }
  - { offsetInCU: 0x42770, offset: 0x42770, size: 0x8, addend: 0x0, symName: __ZNSt10_HashtableIcSt4pairIKcS0_IiiEESaIS3_ENSt8__detail10_Select1stESt8equal_toIcESt4hashIcENS5_18_Mod_range_hashingENS5_20_Default_ranged_hashENS5_20_Prime_rehash_policyENS5_17_Hashtable_traitsILb0ELb0ELb1EEEE22_M_insert_bucket_beginEmPNS5_10_Hash_nodeIS3_Lb0EEE, symObjAddr: 0x3414, symBinAddr: 0x100005E34, symSize: 0x10C }
  - { offsetInCU: 0x427B3, offset: 0x427B3, size: 0x8, addend: 0x0, symName: __ZNSt10_HashtableIcSt4pairIKcS0_IiiEESaIS3_ENSt8__detail10_Select1stESt8equal_toIcESt4hashIcENS5_18_Mod_range_hashingENS5_20_Default_ranged_hashENS5_20_Prime_rehash_policyENS5_17_Hashtable_traitsILb0ELb0ELb1EEEE9_M_rehashEmRKm, symObjAddr: 0x338C, symBinAddr: 0x100005DAC, symSize: 0x6C }
  - { offsetInCU: 0x427BB, offset: 0x427BB, size: 0x8, addend: 0x0, symName: __ZNKSt8__detail15_Hash_code_baseIcSt4pairIKcS1_IiiEENS_10_Select1stESt4hashIcENS_18_Mod_range_hashingENS_20_Default_ranged_hashELb0EE13_M_store_codeERNS_21_Hash_node_code_cacheILb0EEEm, symObjAddr: 0x33F8, symBinAddr: 0x100005E18, symSize: 0x1C }
  - { offsetInCU: 0x4280E, offset: 0x4280E, size: 0x8, addend: 0x0, symName: __ZNSt8__detail16_Hashtable_allocISaINS_10_Hash_nodeISt4pairIKcS2_IiiEELb0EEEEE16_M_allocate_nodeIJRKSt21piecewise_construct_tSt5tupleIJRS3_EESD_IJEEEEEPS6_DpOT_, symObjAddr: 0x316C, symBinAddr: 0x100005B8C, symSize: 0x220 }
  - { offsetInCU: 0x42816, offset: 0x42816, size: 0x8, addend: 0x0, symName: __ZNSt10_HashtableIcSt4pairIKcS0_IiiEESaIS3_ENSt8__detail10_Select1stESt8equal_toIcESt4hashIcENS5_18_Mod_range_hashingENS5_20_Default_ranged_hashENS5_20_Prime_rehash_policyENS5_17_Hashtable_traitsILb0ELb0ELb1EEEE9_M_rehashEmRKm, symObjAddr: 0x338C, symBinAddr: 0x100005DAC, symSize: 0x6C }
  - { offsetInCU: 0x42A65, offset: 0x42A65, size: 0x8, addend: 0x0, symName: __ZNSt8__detail10_Hash_nodeISt4pairIKcS1_IiiEELb0EEC1Ev, symObjAddr: 0x314C, symBinAddr: 0x100005B6C, symSize: 0x20 }
  - { offsetInCU: 0x42A6D, offset: 0x42A6D, size: 0x8, addend: 0x0, symName: __ZNSt8__detail16_Hashtable_allocISaINS_10_Hash_nodeISt4pairIKcS2_IiiEELb0EEEEE16_M_allocate_nodeIJRKSt21piecewise_construct_tSt5tupleIJRS3_EESD_IJEEEEEPS6_DpOT_, symObjAddr: 0x316C, symBinAddr: 0x100005B8C, symSize: 0x220 }
  - { offsetInCU: 0x42AB8, offset: 0x42AB8, size: 0x8, addend: 0x0, symName: __ZSt7forwardISt5tupleIJEEEOT_RNSt16remove_referenceIS2_E4typeE, symObjAddr: 0x3138, symBinAddr: 0x100005B58, symSize: 0x14 }
  - { offsetInCU: 0x42AC0, offset: 0x42AC0, size: 0x8, addend: 0x0, symName: __ZNSt8__detail10_Hash_nodeISt4pairIKcS1_IiiEELb0EEC1Ev, symObjAddr: 0x314C, symBinAddr: 0x100005B6C, symSize: 0x20 }
  - { offsetInCU: 0x42B1C, offset: 0x42B1C, size: 0x8, addend: 0x0, symName: __ZSt7forwardISt5tupleIJRKcEEEOT_RNSt16remove_referenceIS4_E4typeE, symObjAddr: 0x3124, symBinAddr: 0x100005B44, symSize: 0x14 }
  - { offsetInCU: 0x42B24, offset: 0x42B24, size: 0x8, addend: 0x0, symName: __ZSt7forwardISt5tupleIJEEEOT_RNSt16remove_referenceIS2_E4typeE, symObjAddr: 0x3138, symBinAddr: 0x100005B58, symSize: 0x14 }
  - { offsetInCU: 0x42B87, offset: 0x42B87, size: 0x8, addend: 0x0, symName: __ZSt7forwardIRKSt21piecewise_construct_tEOT_RNSt16remove_referenceIS3_E4typeE, symObjAddr: 0x3110, symBinAddr: 0x100005B30, symSize: 0x14 }
  - { offsetInCU: 0x42B8F, offset: 0x42B8F, size: 0x8, addend: 0x0, symName: __ZSt7forwardISt5tupleIJRKcEEEOT_RNSt16remove_referenceIS4_E4typeE, symObjAddr: 0x3124, symBinAddr: 0x100005B44, symSize: 0x14 }
  - { offsetInCU: 0x42BB1, offset: 0x42BB1, size: 0x8, addend: 0x0, symName: __ZNSt11_Tuple_implILm0EJRKcEEC2ES1_, symObjAddr: 0x30E8, symBinAddr: 0x100005B08, symSize: 0x28 }
  - { offsetInCU: 0x42BB9, offset: 0x42BB9, size: 0x8, addend: 0x0, symName: __ZSt7forwardIRKSt21piecewise_construct_tEOT_RNSt16remove_referenceIS3_E4typeE, symObjAddr: 0x3110, symBinAddr: 0x100005B30, symSize: 0x14 }
  - { offsetInCU: 0x42BCA, offset: 0x42BCA, size: 0x8, addend: 0x0, symName: __ZNSt8__detail21_Hash_node_value_baseISt4pairIKcS1_IiiEEE9_M_valptrEv, symObjAddr: 0x30CC, symBinAddr: 0x100005AEC, symSize: 0x1C }
  - { offsetInCU: 0x42BD2, offset: 0x42BD2, size: 0x8, addend: 0x0, symName: __ZNSt11_Tuple_implILm0EJRKcEEC2ES1_, symObjAddr: 0x30E8, symBinAddr: 0x100005B08, symSize: 0x28 }
  - { offsetInCU: 0x42BFB, offset: 0x42BFB, size: 0x8, addend: 0x0, symName: __ZNKSt10_HashtableIcSt4pairIKcS0_IiiEESaIS3_ENSt8__detail10_Select1stESt8equal_toIcESt4hashIcENS5_18_Mod_range_hashingENS5_20_Default_ranged_hashENS5_20_Prime_rehash_policyENS5_17_Hashtable_traitsILb0ELb0ELb1EEEE19_M_find_before_nodeEmRS1_m, symObjAddr: 0x2FCC, symBinAddr: 0x1000059EC, symSize: 0x100 }
  - { offsetInCU: 0x42C03, offset: 0x42C03, size: 0x8, addend: 0x0, symName: __ZNSt8__detail21_Hash_node_value_baseISt4pairIKcS1_IiiEEE9_M_valptrEv, symObjAddr: 0x30CC, symBinAddr: 0x100005AEC, symSize: 0x1C }
  - { offsetInCU: 0x42CA8, offset: 0x42CA8, size: 0x8, addend: 0x0, symName: __ZNKSt8__detail15_Hash_code_baseIcSt4pairIKcS1_IiiEENS_10_Select1stESt4hashIcENS_18_Mod_range_hashingENS_20_Default_ranged_hashELb0EE15_M_bucket_indexEmm, symObjAddr: 0x2FA0, symBinAddr: 0x1000059C0, symSize: 0x2C }
  - { offsetInCU: 0x42CB0, offset: 0x42CB0, size: 0x8, addend: 0x0, symName: __ZNKSt10_HashtableIcSt4pairIKcS0_IiiEESaIS3_ENSt8__detail10_Select1stESt8equal_toIcESt4hashIcENS5_18_Mod_range_hashingENS5_20_Default_ranged_hashENS5_20_Prime_rehash_policyENS5_17_Hashtable_traitsILb0ELb0ELb1EEEE19_M_find_before_nodeEmRS1_m, symObjAddr: 0x2FCC, symBinAddr: 0x1000059EC, symSize: 0x100 }
  - { offsetInCU: 0x42D03, offset: 0x42D03, size: 0x8, addend: 0x0, symName: __ZNKSt8__detail15_Hash_code_baseIcSt4pairIKcS1_IiiEENS_10_Select1stESt4hashIcENS_18_Mod_range_hashingENS_20_Default_ranged_hashELb0EE7_M_hashEv, symObjAddr: 0x2F84, symBinAddr: 0x1000059A4, symSize: 0x1C }
  - { offsetInCU: 0x42D0B, offset: 0x42D0B, size: 0x8, addend: 0x0, symName: __ZNKSt8__detail15_Hash_code_baseIcSt4pairIKcS1_IiiEENS_10_Select1stESt4hashIcENS_18_Mod_range_hashingENS_20_Default_ranged_hashELb0EE15_M_bucket_indexEmm, symObjAddr: 0x2FA0, symBinAddr: 0x1000059C0, symSize: 0x2C }
  - { offsetInCU: 0x42D77, offset: 0x42D77, size: 0x8, addend: 0x0, symName: __ZSt10destroy_atISt4pairIiiEEvPT_, symObjAddr: 0x2F70, symBinAddr: 0x100005990, symSize: 0x14 }
  - { offsetInCU: 0x42D7F, offset: 0x42D7F, size: 0x8, addend: 0x0, symName: __ZNKSt8__detail15_Hash_code_baseIcSt4pairIKcS1_IiiEENS_10_Select1stESt4hashIcENS_18_Mod_range_hashingENS_20_Default_ranged_hashELb0EE7_M_hashEv, symObjAddr: 0x2F84, symBinAddr: 0x1000059A4, symSize: 0x1C }
  - { offsetInCU: 0x42D79, offset: 0x42D79, size: 0x8, addend: 0x0, symName: __ZNSt15_Deque_iteratorISt4pairIiiERS1_PS1_E14_S_buffer_sizeEv, symObjAddr: 0x2F58, symBinAddr: 0x100005978, symSize: 0x18 }
  - { offsetInCU: 0x42D81, offset: 0x42D81, size: 0x8, addend: 0x0, symName: __ZSt10destroy_atISt4pairIiiEEvPT_, symObjAddr: 0x2F70, symBinAddr: 0x100005990, symSize: 0x14 }
  - { offsetInCU: 0x42D96, offset: 0x42D96, size: 0x8, addend: 0x0, symName: __ZNSt5dequeISt4pairIiiESaIS1_EE4backEv, symObjAddr: 0x2F24, symBinAddr: 0x100005944, symSize: 0x34 }
  - { offsetInCU: 0x42D9E, offset: 0x42D9E, size: 0x8, addend: 0x0, symName: __ZNSt15_Deque_iteratorISt4pairIiiERS1_PS1_E14_S_buffer_sizeEv, symObjAddr: 0x2F58, symBinAddr: 0x100005978, symSize: 0x18 }
  - { offsetInCU: 0x42DDC, offset: 0x42DDC, size: 0x8, addend: 0x0, symName: __ZNSt5dequeISt4pairIiiESaIS1_EE16_M_push_back_auxIJS1_EEEvDpOT_, symObjAddr: 0x2E38, symBinAddr: 0x100005858, symSize: 0xEC }
  - { offsetInCU: 0x42DE4, offset: 0x42DE4, size: 0x8, addend: 0x0, symName: __ZNSt5dequeISt4pairIiiESaIS1_EE4backEv, symObjAddr: 0x2F24, symBinAddr: 0x100005944, symSize: 0x34 }
  - { offsetInCU: 0x42F2E, offset: 0x42F2E, size: 0x8, addend: 0x0, symName: __ZSt7forwardISt4pairIiiEEOT_RNSt16remove_referenceIS2_E4typeE, symObjAddr: 0x2E24, symBinAddr: 0x100005844, symSize: 0x14 }
  - { offsetInCU: 0x42F36, offset: 0x42F36, size: 0x8, addend: 0x0, symName: __ZNSt5dequeISt4pairIiiESaIS1_EE16_M_push_back_auxIJS1_EEEvDpOT_, symObjAddr: 0x2E38, symBinAddr: 0x100005858, symSize: 0xEC }
  - { offsetInCU: 0x42F90, offset: 0x42F90, size: 0x8, addend: 0x0, symName: __ZNKSt11_Deque_baseISt4pairIiiESaIS1_EE20_M_get_map_allocatorEv, symObjAddr: 0x2DDC, symBinAddr: 0x1000057FC, symSize: 0x48 }
  - { offsetInCU: 0x42F98, offset: 0x42F98, size: 0x8, addend: 0x0, symName: __ZSt7forwardISt4pairIiiEEOT_RNSt16remove_referenceIS2_E4typeE, symObjAddr: 0x2E24, symBinAddr: 0x100005844, symSize: 0x14 }
  - { offsetInCU: 0x4301E, offset: 0x4301E, size: 0x8, addend: 0x0, symName: __ZNSt11_Deque_baseISt4pairIiiESaIS1_EE18_M_deallocate_nodeEPS1_, symObjAddr: 0x2D4C, symBinAddr: 0x10000576C, symSize: 0x90 }
  - { offsetInCU: 0x43026, offset: 0x43026, size: 0x8, addend: 0x0, symName: __ZNKSt11_Deque_baseISt4pairIiiESaIS1_EE20_M_get_map_allocatorEv, symObjAddr: 0x2DDC, symBinAddr: 0x1000057FC, symSize: 0x48 }
  - { offsetInCU: 0x430E8, offset: 0x430E8, size: 0x8, addend: 0x0, symName: __ZNSt15_Deque_iteratorISt4pairIiiERS1_PS1_E11_M_set_nodeEPS3_, symObjAddr: 0x2CF0, symBinAddr: 0x100005710, symSize: 0x5C }
  - { offsetInCU: 0x430F0, offset: 0x430F0, size: 0x8, addend: 0x0, symName: __ZNSt11_Deque_baseISt4pairIiiESaIS1_EE18_M_deallocate_nodeEPS1_, symObjAddr: 0x2D4C, symBinAddr: 0x10000576C, symSize: 0x90 }
  - { offsetInCU: 0x4312E, offset: 0x4312E, size: 0x8, addend: 0x0, symName: __ZNSt11_Deque_baseISt4pairIiiESaIS1_EE15_M_create_nodesEPPS1_S5_, symObjAddr: 0x2C64, symBinAddr: 0x100005684, symSize: 0x8C }
  - { offsetInCU: 0x43136, offset: 0x43136, size: 0x8, addend: 0x0, symName: __ZNSt15_Deque_iteratorISt4pairIiiERS1_PS1_E11_M_set_nodeEPS3_, symObjAddr: 0x2CF0, symBinAddr: 0x100005710, symSize: 0x5C }
  - { offsetInCU: 0x4319E, offset: 0x4319E, size: 0x8, addend: 0x0, symName: __ZNSt11_Deque_baseISt4pairIiiESaIS1_EE15_M_allocate_mapEm, symObjAddr: 0x2B94, symBinAddr: 0x1000055B4, symSize: 0xD0 }
  - { offsetInCU: 0x431A6, offset: 0x431A6, size: 0x8, addend: 0x0, symName: __ZNSt11_Deque_baseISt4pairIiiESaIS1_EE15_M_create_nodesEPPS1_S5_, symObjAddr: 0x2C64, symBinAddr: 0x100005684, symSize: 0x8C }
  - { offsetInCU: 0x43302, offset: 0x43302, size: 0x8, addend: 0x0, symName: __ZNSt11_Deque_baseISt4pairIiiESaIS1_EE16_Deque_impl_dataC2Ev, symObjAddr: 0x2B54, symBinAddr: 0x100005574, symSize: 0x40 }
  - { offsetInCU: 0x4330A, offset: 0x4330A, size: 0x8, addend: 0x0, symName: __ZNSt11_Deque_baseISt4pairIiiESaIS1_EE15_M_allocate_mapEm, symObjAddr: 0x2B94, symBinAddr: 0x1000055B4, symSize: 0xD0 }
  - { offsetInCU: 0x43310, offset: 0x43310, size: 0x8, addend: 0x0, symName: __ZNSt8__detail16_Hashtable_allocISaINS_10_Hash_nodeISt4pairIKcS2_IiiEELb0EEEEE21_M_deallocate_bucketsEPPNS_15_Hash_node_baseEm, symObjAddr: 0x2AAC, symBinAddr: 0x1000054CC, symSize: 0xA8 }
  - { offsetInCU: 0x43318, offset: 0x43318, size: 0x8, addend: 0x0, symName: __ZNSt11_Deque_baseISt4pairIiiESaIS1_EE16_Deque_impl_dataC2Ev, symObjAddr: 0x2B54, symBinAddr: 0x100005574, symSize: 0x40 }
  - { offsetInCU: 0x43499, offset: 0x43499, size: 0x8, addend: 0x0, symName: __ZNKSt10_HashtableIcSt4pairIKcS0_IiiEESaIS3_ENSt8__detail10_Select1stESt8equal_toIcESt4hashIcENS5_18_Mod_range_hashingENS5_20_Default_ranged_hashENS5_20_Prime_rehash_policyENS5_17_Hashtable_traitsILb0ELb0ELb1EEEE21_M_uses_single_bucketEPPNS5_15_Hash_node_baseE, symObjAddr: 0x2A70, symBinAddr: 0x100005490, symSize: 0x3C }
  - { offsetInCU: 0x434A1, offset: 0x434A1, size: 0x8, addend: 0x0, symName: __ZNSt8__detail16_Hashtable_allocISaINS_10_Hash_nodeISt4pairIKcS2_IiiEELb0EEEEE21_M_deallocate_bucketsEPPNS_15_Hash_node_baseEm, symObjAddr: 0x2AAC, symBinAddr: 0x1000054CC, symSize: 0xA8 }
  - { offsetInCU: 0x434DF, offset: 0x434DF, size: 0x8, addend: 0x0, symName: __ZNSt8__detail16_Hashtable_allocISaINS_10_Hash_nodeISt4pairIKcS2_IiiEELb0EEEEE18_M_deallocate_nodeEPS6_, symObjAddr: 0x2A14, symBinAddr: 0x100005434, symSize: 0x5C }
  - { offsetInCU: 0x434E7, offset: 0x434E7, size: 0x8, addend: 0x0, symName: __ZNKSt10_HashtableIcSt4pairIKcS0_IiiEESaIS3_ENSt8__detail10_Select1stESt8equal_toIcESt4hashIcENS5_18_Mod_range_hashingENS5_20_Default_ranged_hashENS5_20_Prime_rehash_policyENS5_17_Hashtable_traitsILb0ELb0ELb1EEEE21_M_uses_single_bucketEPPNS5_15_Hash_node_baseE, symObjAddr: 0x2A70, symBinAddr: 0x100005490, symSize: 0x3C }
  - { offsetInCU: 0x4355A, offset: 0x4355A, size: 0x8, addend: 0x0, symName: __ZNKSt8__detail10_Hash_nodeISt4pairIKcS1_IiiEELb0EE7_M_nextEv, symObjAddr: 0x29FC, symBinAddr: 0x10000541C, symSize: 0x18 }
  - { offsetInCU: 0x43562, offset: 0x43562, size: 0x8, addend: 0x0, symName: __ZNSt8__detail16_Hashtable_allocISaINS_10_Hash_nodeISt4pairIKcS2_IiiEELb0EEEEE18_M_deallocate_nodeEPS6_, symObjAddr: 0x2A14, symBinAddr: 0x100005434, symSize: 0x5C }
  - { offsetInCU: 0x4358B, offset: 0x4358B, size: 0x8, addend: 0x0, symName: __ZNSt8__detail12_Insert_baseIcSt4pairIKcS1_IiiEESaIS4_ENS_10_Select1stESt8equal_toIcESt4hashIcENS_18_Mod_range_hashingENS_20_Default_ranged_hashENS_20_Prime_rehash_policyENS_17_Hashtable_traitsILb0ELb0ELb1EEEE6insertIPKS4_EEvT_SK_, symObjAddr: 0x29A0, symBinAddr: 0x1000053C0, symSize: 0x5C }
  - { offsetInCU: 0x43593, offset: 0x43593, size: 0x8, addend: 0x0, symName: __ZNKSt8__detail10_Hash_nodeISt4pairIKcS1_IiiEELb0EE7_M_nextEv, symObjAddr: 0x29FC, symBinAddr: 0x10000541C, symSize: 0x18 }
  - { offsetInCU: 0x4377C, offset: 0x4377C, size: 0x8, addend: 0x0, symName: __ZNSt10_HashtableIcSt4pairIKcS0_IiiEESaIS3_ENSt8__detail10_Select1stESt8equal_toIcESt4hashIcENS5_18_Mod_range_hashingENS5_20_Default_ranged_hashENS5_20_Prime_rehash_policyENS5_17_Hashtable_traitsILb0ELb0ELb1EEEEC1EmRKSA_RKS8_RKS4_, symObjAddr: 0x28F8, symBinAddr: 0x100005318, symSize: 0xA8 }
  - { offsetInCU: 0x43784, offset: 0x43784, size: 0x8, addend: 0x0, symName: __ZNSt8__detail12_Insert_baseIcSt4pairIKcS1_IiiEESaIS4_ENS_10_Select1stESt8equal_toIcESt4hashIcENS_18_Mod_range_hashingENS_20_Default_ranged_hashENS_20_Prime_rehash_policyENS_17_Hashtable_traitsILb0ELb0ELb1EEEE6insertIPKS4_EEvT_SK_, symObjAddr: 0x29A0, symBinAddr: 0x1000053C0, symSize: 0x5C }
  - { offsetInCU: 0x43736, offset: 0x43736, size: 0x8, addend: 0x0, symName: __ZNKSt16initializer_listISt4pairIKcS0_IiiEEE4sizeEv, symObjAddr: 0x28E0, symBinAddr: 0x100005300, symSize: 0x18 }
  - { offsetInCU: 0x4373E, offset: 0x4373E, size: 0x8, addend: 0x0, symName: __ZNSt10_HashtableIcSt4pairIKcS0_IiiEESaIS3_ENSt8__detail10_Select1stESt8equal_toIcESt4hashIcENS5_18_Mod_range_hashingENS5_20_Default_ranged_hashENS5_20_Prime_rehash_policyENS5_17_Hashtable_traitsILb0ELb0ELb1EEEEC1EmRKSA_RKS8_RKS4_, symObjAddr: 0x28F8, symBinAddr: 0x100005318, symSize: 0xA8 }
  - { offsetInCU: 0x43806, offset: 0x43806, size: 0x8, addend: 0x0, symName: __ZSt10__fill_n_aIPSt6vectorIcSaIcEEmS2_ET_S4_T0_RKT1_St26random_access_iterator_tag, symObjAddr: 0x285C, symBinAddr: 0x10000527C, symSize: 0x84 }
  - { offsetInCU: 0x4380E, offset: 0x4380E, size: 0x8, addend: 0x0, symName: __ZNKSt16initializer_listISt4pairIKcS0_IiiEEE4sizeEv, symObjAddr: 0x28E0, symBinAddr: 0x100005300, symSize: 0x18 }
  - { offsetInCU: 0x438C9, offset: 0x438C9, size: 0x8, addend: 0x0, symName: __ZSt20uninitialized_fill_nIPSt6vectorIcSaIcEEmS2_ET_S4_T0_RKT1_, symObjAddr: 0x282C, symBinAddr: 0x10000524C, symSize: 0x30 }
  - { offsetInCU: 0x438D1, offset: 0x438D1, size: 0x8, addend: 0x0, symName: __ZSt10__fill_n_aIPSt6vectorIcSaIcEEmS2_ET_S4_T0_RKT1_St26random_access_iterator_tag, symObjAddr: 0x285C, symBinAddr: 0x10000527C, symSize: 0x84 }
  - { offsetInCU: 0x4396C, offset: 0x4396C, size: 0x8, addend: 0x0, symName: __ZSt18__do_uninit_fill_nIPSt6vectorIcSaIcEEmS2_ET_S4_T0_RKT1_, symObjAddr: 0x279C, symBinAddr: 0x1000051BC, symSize: 0x90 }
  - { offsetInCU: 0x43974, offset: 0x43974, size: 0x8, addend: 0x0, symName: __ZSt20uninitialized_fill_nIPSt6vectorIcSaIcEEmS2_ET_S4_T0_RKT1_, symObjAddr: 0x282C, symBinAddr: 0x10000524C, symSize: 0x30 }
  - { offsetInCU: 0x43A55, offset: 0x43A55, size: 0x8, addend: 0x0, symName: __ZSt8__fill_aIN9__gnu_cxx17__normal_iteratorIPSt6vectorIcSaIcEES2_IS4_SaIS4_EEEES4_EvT_S9_RKT0_, symObjAddr: 0x276C, symBinAddr: 0x10000518C, symSize: 0x30 }
  - { offsetInCU: 0x43A5D, offset: 0x43A5D, size: 0x8, addend: 0x0, symName: __ZSt18__do_uninit_fill_nIPSt6vectorIcSaIcEEmS2_ET_S4_T0_RKT1_, symObjAddr: 0x279C, symBinAddr: 0x1000051BC, symSize: 0x90 }
  - { offsetInCU: 0x43A78, offset: 0x43A78, size: 0x8, addend: 0x0, symName: __ZN9__gnu_cxx17__normal_iteratorIPSt6vectorIcSaIcEES1_IS3_SaIS3_EEEC1ERKS4_, symObjAddr: 0x2744, symBinAddr: 0x100005164, symSize: 0x28 }
  - { offsetInCU: 0x43A80, offset: 0x43A80, size: 0x8, addend: 0x0, symName: __ZSt8__fill_aIN9__gnu_cxx17__normal_iteratorIPSt6vectorIcSaIcEES2_IS4_SaIS4_EEEES4_EvT_S9_RKT0_, symObjAddr: 0x276C, symBinAddr: 0x10000518C, symSize: 0x30 }
  - { offsetInCU: 0x43A69, offset: 0x43A69, size: 0x8, addend: 0x0, symName: __ZNSt12_Vector_baseISt6vectorIcSaIcEESaIS2_EE17_Vector_impl_data12_M_copy_dataERKS5_, symObjAddr: 0x26FC, symBinAddr: 0x10000511C, symSize: 0x48 }
  - { offsetInCU: 0x43A71, offset: 0x43A71, size: 0x8, addend: 0x0, symName: __ZN9__gnu_cxx17__normal_iteratorIPSt6vectorIcSaIcEES1_IS3_SaIS3_EEEC1ERKS4_, symObjAddr: 0x2744, symBinAddr: 0x100005164, symSize: 0x28 }
  - { offsetInCU: 0x43AAE, offset: 0x43AAE, size: 0x8, addend: 0x0, symName: __ZNSt6vectorIS_IcSaIcEESaIS1_EE18_M_fill_initializeEmRKS1_, symObjAddr: 0x26A4, symBinAddr: 0x1000050C4, symSize: 0x58 }
  - { offsetInCU: 0x43AB6, offset: 0x43AB6, size: 0x8, addend: 0x0, symName: __ZNSt12_Vector_baseISt6vectorIcSaIcEESaIS2_EE17_Vector_impl_data12_M_copy_dataERKS5_, symObjAddr: 0x26FC, symBinAddr: 0x10000511C, symSize: 0x48 }
  - { offsetInCU: 0x43B7F, offset: 0x43B7F, size: 0x8, addend: 0x0, symName: __ZNSt12_Vector_baseISt6vectorIcSaIcEESaIS2_EEC2EmRKS3_, symObjAddr: 0x2650, symBinAddr: 0x100005070, symSize: 0x54 }
  - { offsetInCU: 0x43B87, offset: 0x43B87, size: 0x8, addend: 0x0, symName: __ZNSt6vectorIS_IcSaIcEESaIS1_EE18_M_fill_initializeEmRKS1_, symObjAddr: 0x26A4, symBinAddr: 0x1000050C4, symSize: 0x58 }
  - { offsetInCU: 0x43B92, offset: 0x43B92, size: 0x8, addend: 0x0, symName: __ZNSt6vectorIS_IcSaIcEESaIS1_EE17_S_check_init_lenEmRKS2_, symObjAddr: 0x25DC, symBinAddr: 0x100004FFC, symSize: 0x74 }
  - { offsetInCU: 0x43B9A, offset: 0x43B9A, size: 0x8, addend: 0x0, symName: __ZNSt12_Vector_baseISt6vectorIcSaIcEESaIS2_EEC2EmRKS3_, symObjAddr: 0x2650, symBinAddr: 0x100005070, symSize: 0x54 }
  - { offsetInCU: 0x43C67, offset: 0x43C67, size: 0x8, addend: 0x0, symName: __ZNSt12_Destroy_auxILb1EE9__destroyIPcEEvT_S3_, symObjAddr: 0x25C4, symBinAddr: 0x100004FE4, symSize: 0x18 }
  - { offsetInCU: 0x43C6F, offset: 0x43C6F, size: 0x8, addend: 0x0, symName: __ZNSt6vectorIS_IcSaIcEESaIS1_EE17_S_check_init_lenEmRKS2_, symObjAddr: 0x25DC, symBinAddr: 0x100004FFC, symSize: 0x74 }
  - { offsetInCU: 0x43CAD, offset: 0x43CAD, size: 0x8, addend: 0x0, symName: __ZNSt12_Destroy_auxILb0EE9__destroyIPcEEvT_S3_, symObjAddr: 0x2578, symBinAddr: 0x100004F98, symSize: 0x4C }
  - { offsetInCU: 0x43CB5, offset: 0x43CB5, size: 0x8, addend: 0x0, symName: __ZNSt12_Destroy_auxILb1EE9__destroyIPcEEvT_S3_, symObjAddr: 0x25C4, symBinAddr: 0x100004FE4, symSize: 0x18 }
  - { offsetInCU: 0x43D69, offset: 0x43D69, size: 0x8, addend: 0x0, symName: __ZSt20uninitialized_fill_nIPcmcET_S1_T0_RKT1_, symObjAddr: 0x2544, symBinAddr: 0x100004F64, symSize: 0x34 }
  - { offsetInCU: 0x43D71, offset: 0x43D71, size: 0x8, addend: 0x0, symName: __ZNSt12_Destroy_auxILb0EE9__destroyIPcEEvT_S3_, symObjAddr: 0x2578, symBinAddr: 0x100004F98, symSize: 0x4C }
  - { offsetInCU: 0x43E0C, offset: 0x43E0C, size: 0x8, addend: 0x0, symName: __ZSt18__do_uninit_fill_nIPcmcET_S1_T0_RKT1_, symObjAddr: 0x24E4, symBinAddr: 0x100004F04, symSize: 0x60 }
  - { offsetInCU: 0x43E14, offset: 0x43E14, size: 0x8, addend: 0x0, symName: __ZSt20uninitialized_fill_nIPcmcET_S1_T0_RKT1_, symObjAddr: 0x2544, symBinAddr: 0x100004F64, symSize: 0x34 }
  - { offsetInCU: 0x43E4F, offset: 0x43E4F, size: 0x8, addend: 0x0, symName: __ZNSt12_Vector_baseIcSaIcEE11_M_allocateEm, symObjAddr: 0x2438, symBinAddr: 0x100004E58, symSize: 0xAC }
  - { offsetInCU: 0x43E57, offset: 0x43E57, size: 0x8, addend: 0x0, symName: __ZSt18__do_uninit_fill_nIPcmcET_S1_T0_RKT1_, symObjAddr: 0x24E4, symBinAddr: 0x100004F04, symSize: 0x60 }
  - { offsetInCU: 0x43F4D, offset: 0x43F4D, size: 0x8, addend: 0x0, symName: __ZNSt12_Vector_baseIcSaIcEE17_Vector_impl_dataC2Ev, symObjAddr: 0x240C, symBinAddr: 0x100004E2C, symSize: 0x2C }
  - { offsetInCU: 0x43F55, offset: 0x43F55, size: 0x8, addend: 0x0, symName: __ZNSt12_Vector_baseIcSaIcEE11_M_allocateEm, symObjAddr: 0x2438, symBinAddr: 0x100004E58, symSize: 0xAC }
  - { offsetInCU: 0x43F4A, offset: 0x43F4A, size: 0x8, addend: 0x0, symName: __ZNSt12_Destroy_auxILb0EE9__destroyIPSt6vectorIcSaIcEEEEvT_S6_, symObjAddr: 0x23C0, symBinAddr: 0x100004DE0, symSize: 0x4C }
  - { offsetInCU: 0x43F52, offset: 0x43F52, size: 0x8, addend: 0x0, symName: __ZNSt12_Vector_baseIcSaIcEE17_Vector_impl_dataC2Ev, symObjAddr: 0x240C, symBinAddr: 0x100004E2C, symSize: 0x2C }
  - { offsetInCU: 0x4406C, offset: 0x4406C, size: 0x8, addend: 0x0, symName: __ZNKSt8__detail14_Node_iteratorISt4pairIKcS1_IiiEELb0ELb0EEptEv, symObjAddr: 0x239C, symBinAddr: 0x100004DBC, symSize: 0x24 }
  - { offsetInCU: 0x44074, offset: 0x44074, size: 0x8, addend: 0x0, symName: __ZNSt12_Destroy_auxILb0EE9__destroyIPSt6vectorIcSaIcEEEEvT_S6_, symObjAddr: 0x23C0, symBinAddr: 0x100004DE0, symSize: 0x4C }
  - { offsetInCU: 0x4409D, offset: 0x4409D, size: 0x8, addend: 0x0, symName: __ZNSt10_HashtableIcSt4pairIKcS0_IiiEESaIS3_ENSt8__detail10_Select1stESt8equal_toIcESt4hashIcENS5_18_Mod_range_hashingENS5_20_Default_ranged_hashENS5_20_Prime_rehash_policyENS5_17_Hashtable_traitsILb0ELb0ELb1EEEE21_M_insert_unique_nodeEmmPNS5_10_Hash_nodeIS3_Lb0EEEm, symObjAddr: 0x22B4, symBinAddr: 0x100004CD4, symSize: 0xE8 }
  - { offsetInCU: 0x440A5, offset: 0x440A5, size: 0x8, addend: 0x0, symName: __ZNKSt8__detail14_Node_iteratorISt4pairIKcS1_IiiEELb0ELb0EEptEv, symObjAddr: 0x239C, symBinAddr: 0x100004DBC, symSize: 0x24 }
  - { offsetInCU: 0x4425F, offset: 0x4425F, size: 0x8, addend: 0x0, symName: __ZNSt10_HashtableIcSt4pairIKcS0_IiiEESaIS3_ENSt8__detail10_Select1stESt8equal_toIcESt4hashIcENS5_18_Mod_range_hashingENS5_20_Default_ranged_hashENS5_20_Prime_rehash_policyENS5_17_Hashtable_traitsILb0ELb0ELb1EEEE12_Scoped_nodeD1Ev, symObjAddr: 0x2270, symBinAddr: 0x100004C90, symSize: 0x44 }
  - { offsetInCU: 0x44267, offset: 0x44267, size: 0x8, addend: 0x0, symName: __ZNSt10_HashtableIcSt4pairIKcS0_IiiEESaIS3_ENSt8__detail10_Select1stESt8equal_toIcESt4hashIcENS5_18_Mod_range_hashingENS5_20_Default_ranged_hashENS5_20_Prime_rehash_policyENS5_17_Hashtable_traitsILb0ELb0ELb1EEEE21_M_insert_unique_nodeEmmPNS5_10_Hash_nodeIS3_Lb0EEEm, symObjAddr: 0x22B4, symBinAddr: 0x100004CD4, symSize: 0xE8 }
  - { offsetInCU: 0x44371, offset: 0x44371, size: 0x8, addend: 0x0, symName: __ZNSt10_HashtableIcSt4pairIKcS0_IiiEESaIS3_ENSt8__detail10_Select1stESt8equal_toIcESt4hashIcENS5_18_Mod_range_hashingENS5_20_Default_ranged_hashENS5_20_Prime_rehash_policyENS5_17_Hashtable_traitsILb0ELb0ELb1EEEE12_Scoped_nodeC1IJRKSt21piecewise_construct_tSt5tupleIJRS1_EESM_IJEEEEEPNS5_16_Hashtable_allocISaINS5_10_Hash_nodeIS3_Lb0EEEEEEDpOT_, symObjAddr: 0x21E8, symBinAddr: 0x100004C08, symSize: 0x88 }
  - { offsetInCU: 0x44379, offset: 0x44379, size: 0x8, addend: 0x0, symName: __ZNSt10_HashtableIcSt4pairIKcS0_IiiEESaIS3_ENSt8__detail10_Select1stESt8equal_toIcESt4hashIcENS5_18_Mod_range_hashingENS5_20_Default_ranged_hashENS5_20_Prime_rehash_policyENS5_17_Hashtable_traitsILb0ELb0ELb1EEEE12_Scoped_nodeD1Ev, symObjAddr: 0x2270, symBinAddr: 0x100004C90, symSize: 0x44 }
  - { offsetInCU: 0x44305, offset: 0x44305, size: 0x8, addend: 0x0, symName: __ZNSt5tupleIJRKcEEC1ILb1ELb1EEES1_, symObjAddr: 0x21C0, symBinAddr: 0x100004BE0, symSize: 0x28 }
  - { offsetInCU: 0x4430D, offset: 0x4430D, size: 0x8, addend: 0x0, symName: __ZNSt10_HashtableIcSt4pairIKcS0_IiiEESaIS3_ENSt8__detail10_Select1stESt8equal_toIcESt4hashIcENS5_18_Mod_range_hashingENS5_20_Default_ranged_hashENS5_20_Prime_rehash_policyENS5_17_Hashtable_traitsILb0ELb0ELb1EEEE12_Scoped_nodeC1IJRKSt21piecewise_construct_tSt5tupleIJRS1_EESM_IJEEEEEPNS5_16_Hashtable_allocISaINS5_10_Hash_nodeIS3_Lb0EEEEEEDpOT_, symObjAddr: 0x21E8, symBinAddr: 0x100004C08, symSize: 0x88 }
  - { offsetInCU: 0x4432F, offset: 0x4432F, size: 0x8, addend: 0x0, symName: __ZNSt8__detail21_Hash_node_value_baseISt4pairIKcS1_IiiEEE4_M_vEv, symObjAddr: 0x21A4, symBinAddr: 0x100004BC4, symSize: 0x1C }
  - { offsetInCU: 0x44337, offset: 0x44337, size: 0x8, addend: 0x0, symName: __ZNSt5tupleIJRKcEEC1ILb1ELb1EEES1_, symObjAddr: 0x21C0, symBinAddr: 0x100004BE0, symSize: 0x28 }
  - { offsetInCU: 0x44360, offset: 0x44360, size: 0x8, addend: 0x0, symName: __ZNKSt10_HashtableIcSt4pairIKcS0_IiiEESaIS3_ENSt8__detail10_Select1stESt8equal_toIcESt4hashIcENS5_18_Mod_range_hashingENS5_20_Default_ranged_hashENS5_20_Prime_rehash_policyENS5_17_Hashtable_traitsILb0ELb0ELb1EEEE12_M_find_nodeEmRS1_m, symObjAddr: 0x2150, symBinAddr: 0x100004B70, symSize: 0x54 }
  - { offsetInCU: 0x44368, offset: 0x44368, size: 0x8, addend: 0x0, symName: __ZNSt8__detail21_Hash_node_value_baseISt4pairIKcS1_IiiEEE4_M_vEv, symObjAddr: 0x21A4, symBinAddr: 0x100004BC4, symSize: 0x1C }
  - { offsetInCU: 0x443E5, offset: 0x443E5, size: 0x8, addend: 0x0, symName: __ZNKSt10_HashtableIcSt4pairIKcS0_IiiEESaIS3_ENSt8__detail10_Select1stESt8equal_toIcESt4hashIcENS5_18_Mod_range_hashingENS5_20_Default_ranged_hashENS5_20_Prime_rehash_policyENS5_17_Hashtable_traitsILb0ELb0ELb1EEEE15_M_bucket_indexEm, symObjAddr: 0x2120, symBinAddr: 0x100004B40, symSize: 0x30 }
  - { offsetInCU: 0x443ED, offset: 0x443ED, size: 0x8, addend: 0x0, symName: __ZNKSt10_HashtableIcSt4pairIKcS0_IiiEESaIS3_ENSt8__detail10_Select1stESt8equal_toIcESt4hashIcENS5_18_Mod_range_hashingENS5_20_Default_ranged_hashENS5_20_Prime_rehash_policyENS5_17_Hashtable_traitsILb0ELb0ELb1EEEE12_M_find_nodeEmRS1_m, symObjAddr: 0x2150, symBinAddr: 0x100004B70, symSize: 0x54 }
  - { offsetInCU: 0x4442B, offset: 0x4442B, size: 0x8, addend: 0x0, symName: __ZNKSt8__detail15_Hash_code_baseIcSt4pairIKcS1_IiiEENS_10_Select1stESt4hashIcENS_18_Mod_range_hashingENS_20_Default_ranged_hashELb0EE12_M_hash_codeERS2_, symObjAddr: 0x20E8, symBinAddr: 0x100004B08, symSize: 0x38 }
  - { offsetInCU: 0x44433, offset: 0x44433, size: 0x8, addend: 0x0, symName: __ZNKSt10_HashtableIcSt4pairIKcS0_IiiEESaIS3_ENSt8__detail10_Select1stESt8equal_toIcESt4hashIcENS5_18_Mod_range_hashingENS5_20_Default_ranged_hashENS5_20_Prime_rehash_policyENS5_17_Hashtable_traitsILb0ELb0ELb1EEEE15_M_bucket_indexEm, symObjAddr: 0x2120, symBinAddr: 0x100004B40, symSize: 0x30 }
  - { offsetInCU: 0x44471, offset: 0x44471, size: 0x8, addend: 0x0, symName: __ZNSt5dequeISt4pairIiiESaIS1_EE16_M_pop_front_auxEv, symObjAddr: 0x2060, symBinAddr: 0x100004A80, symSize: 0x88 }
  - { offsetInCU: 0x44479, offset: 0x44479, size: 0x8, addend: 0x0, symName: __ZNKSt8__detail15_Hash_code_baseIcSt4pairIKcS1_IiiEENS_10_Select1stESt4hashIcENS_18_Mod_range_hashingENS_20_Default_ranged_hashELb0EE12_M_hash_codeERS2_, symObjAddr: 0x20E8, symBinAddr: 0x100004B08, symSize: 0x38 }
  - { offsetInCU: 0x44514, offset: 0x44514, size: 0x8, addend: 0x0, symName: __ZNKSt15_Deque_iteratorISt4pairIiiERS1_PS1_EdeEv, symObjAddr: 0x2048, symBinAddr: 0x100004A68, symSize: 0x18 }
  - { offsetInCU: 0x4451C, offset: 0x4451C, size: 0x8, addend: 0x0, symName: __ZNSt5dequeISt4pairIiiESaIS1_EE16_M_pop_front_auxEv, symObjAddr: 0x2060, symBinAddr: 0x100004A80, symSize: 0x88 }
  - { offsetInCU: 0x44583, offset: 0x44583, size: 0x8, addend: 0x0, symName: __ZStmiRKSt15_Deque_iteratorISt4pairIiiERS1_PS1_ES6_, symObjAddr: 0x1FB4, symBinAddr: 0x1000049D4, symSize: 0x94 }
  - { offsetInCU: 0x4458B, offset: 0x4458B, size: 0x8, addend: 0x0, symName: __ZNKSt15_Deque_iteratorISt4pairIiiERS1_PS1_EdeEv, symObjAddr: 0x2048, symBinAddr: 0x100004A68, symSize: 0x18 }
  - { offsetInCU: 0x445A5, offset: 0x445A5, size: 0x8, addend: 0x0, symName: __ZNSt5dequeISt4pairIiiESaIS1_EE12emplace_backIJS1_EEERS1_DpOT_, symObjAddr: 0x1F0C, symBinAddr: 0x10000492C, symSize: 0xA8 }
  - { offsetInCU: 0x445AD, offset: 0x445AD, size: 0x8, addend: 0x0, symName: __ZStmiRKSt15_Deque_iteratorISt4pairIiiERS1_PS1_ES6_, symObjAddr: 0x1FB4, symBinAddr: 0x1000049D4, symSize: 0x94 }
  - { offsetInCU: 0x4469A, offset: 0x4469A, size: 0x8, addend: 0x0, symName: __ZNSt15_Deque_iteratorISt4pairIiiERS1_PS1_EC1ERKS4_, symObjAddr: 0x1EB4, symBinAddr: 0x1000048D4, symSize: 0x58 }
  - { offsetInCU: 0x446A2, offset: 0x446A2, size: 0x8, addend: 0x0, symName: __ZNSt5dequeISt4pairIiiESaIS1_EE12emplace_backIJS1_EEERS1_DpOT_, symObjAddr: 0x1F0C, symBinAddr: 0x10000492C, symSize: 0xA8 }
  - { offsetInCU: 0x446A3, offset: 0x446A3, size: 0x8, addend: 0x0, symName: __ZNSt11_Deque_baseISt4pairIiiESaIS1_EE17_M_deallocate_mapEPPS1_m, symObjAddr: 0x1E24, symBinAddr: 0x100004844, symSize: 0x90 }
  - { offsetInCU: 0x446AB, offset: 0x446AB, size: 0x8, addend: 0x0, symName: __ZNSt15_Deque_iteratorISt4pairIiiERS1_PS1_EC1ERKS4_, symObjAddr: 0x1EB4, symBinAddr: 0x1000048D4, symSize: 0x58 }
  - { offsetInCU: 0x447BA, offset: 0x447BA, size: 0x8, addend: 0x0, symName: __ZNSt11_Deque_baseISt4pairIiiESaIS1_EE16_M_destroy_nodesEPPS1_S5_, symObjAddr: 0x1DC4, symBinAddr: 0x1000047E4, symSize: 0x60 }
  - { offsetInCU: 0x447C2, offset: 0x447C2, size: 0x8, addend: 0x0, symName: __ZNSt11_Deque_baseISt4pairIiiESaIS1_EE17_M_deallocate_mapEPPS1_m, symObjAddr: 0x1E24, symBinAddr: 0x100004844, symSize: 0x90 }
  - { offsetInCU: 0x4483D, offset: 0x4483D, size: 0x8, addend: 0x0, symName: __ZNSt11_Deque_baseISt4pairIiiESaIS1_EE17_M_initialize_mapEm, symObjAddr: 0x1C38, symBinAddr: 0x100004658, symSize: 0x18C }
  - { offsetInCU: 0x44845, offset: 0x44845, size: 0x8, addend: 0x0, symName: __ZNSt11_Deque_baseISt4pairIiiESaIS1_EE16_M_destroy_nodesEPPS1_S5_, symObjAddr: 0x1DC4, symBinAddr: 0x1000047E4, symSize: 0x60 }
  - { offsetInCU: 0x4493F, offset: 0x4493F, size: 0x8, addend: 0x0, symName: __ZNSt11_Deque_baseISt4pairIiiESaIS1_EE11_Deque_implC1Ev, symObjAddr: 0x1C00, symBinAddr: 0x100004620, symSize: 0x38 }
  - { offsetInCU: 0x44947, offset: 0x44947, size: 0x8, addend: 0x0, symName: __ZNSt11_Deque_baseISt4pairIiiESaIS1_EE17_M_initialize_mapEm, symObjAddr: 0x1C38, symBinAddr: 0x100004658, symSize: 0x18C }
  - { offsetInCU: 0x44987, offset: 0x44987, size: 0x8, addend: 0x0, symName: __ZNSt10_HashtableIcSt4pairIKcS0_IiiEESaIS3_ENSt8__detail10_Select1stESt8equal_toIcESt4hashIcENS5_18_Mod_range_hashingENS5_20_Default_ranged_hashENS5_20_Prime_rehash_policyENS5_17_Hashtable_traitsILb0ELb0ELb1EEEE21_M_deallocate_bucketsEPPNS5_15_Hash_node_baseEm, symObjAddr: 0x1BB0, symBinAddr: 0x1000045D0, symSize: 0x50 }
  - { offsetInCU: 0x4498F, offset: 0x4498F, size: 0x8, addend: 0x0, symName: __ZNSt11_Deque_baseISt4pairIiiESaIS1_EE11_Deque_implC1Ev, symObjAddr: 0x1C00, symBinAddr: 0x100004620, symSize: 0x38 }
  - { offsetInCU: 0x449E2, offset: 0x449E2, size: 0x8, addend: 0x0, symName: __ZNSt8__detail16_Hashtable_allocISaINS_10_Hash_nodeISt4pairIKcS2_IiiEELb0EEEEE19_M_deallocate_nodesEPS6_, symObjAddr: 0x1B60, symBinAddr: 0x100004580, symSize: 0x50 }
  - { offsetInCU: 0x449EA, offset: 0x449EA, size: 0x8, addend: 0x0, symName: __ZNSt10_HashtableIcSt4pairIKcS0_IiiEESaIS3_ENSt8__detail10_Select1stESt8equal_toIcESt4hashIcENS5_18_Mod_range_hashingENS5_20_Default_ranged_hashENS5_20_Prime_rehash_policyENS5_17_Hashtable_traitsILb0ELb0ELb1EEEE21_M_deallocate_bucketsEPPNS5_15_Hash_node_baseEm, symObjAddr: 0x1BB0, symBinAddr: 0x1000045D0, symSize: 0x50 }
  - { offsetInCU: 0x44A50, offset: 0x44A50, size: 0x8, addend: 0x0, symName: __ZNKSt10_HashtableIcSt4pairIKcS0_IiiEESaIS3_ENSt8__detail10_Select1stESt8equal_toIcESt4hashIcENS5_18_Mod_range_hashingENS5_20_Default_ranged_hashENS5_20_Prime_rehash_policyENS5_17_Hashtable_traitsILb0ELb0ELb1EEEE8_M_beginEv, symObjAddr: 0x1B48, symBinAddr: 0x100004568, symSize: 0x18 }
  - { offsetInCU: 0x44A58, offset: 0x44A58, size: 0x8, addend: 0x0, symName: __ZNSt8__detail16_Hashtable_allocISaINS_10_Hash_nodeISt4pairIKcS2_IiiEELb0EEEEE19_M_deallocate_nodesEPS6_, symObjAddr: 0x1B60, symBinAddr: 0x100004580, symSize: 0x50 }
  - { offsetInCU: 0x44C2D, offset: 0x44C2D, size: 0x8, addend: 0x0, symName: __ZNSt10_HashtableIcSt4pairIKcS0_IiiEESaIS3_ENSt8__detail10_Select1stESt8equal_toIcESt4hashIcENS5_18_Mod_range_hashingENS5_20_Default_ranged_hashENS5_20_Prime_rehash_policyENS5_17_Hashtable_traitsILb0ELb0ELb1EEEEC1IPKS3_EET_SK_mRKSA_RKS8_RKS4_St17integral_constantIbLb1EE, symObjAddr: 0x1AD0, symBinAddr: 0x1000044F0, symSize: 0x78 }
  - { offsetInCU: 0x44C35, offset: 0x44C35, size: 0x8, addend: 0x0, symName: __ZNKSt10_HashtableIcSt4pairIKcS0_IiiEESaIS3_ENSt8__detail10_Select1stESt8equal_toIcESt4hashIcENS5_18_Mod_range_hashingENS5_20_Default_ranged_hashENS5_20_Prime_rehash_policyENS5_17_Hashtable_traitsILb0ELb0ELb1EEEE8_M_beginEv, symObjAddr: 0x1B48, symBinAddr: 0x100004568, symSize: 0x18 }
  - { offsetInCU: 0x44BB6, offset: 0x44BB6, size: 0x8, addend: 0x0, symName: __ZNKSt16initializer_listISt4pairIKcS0_IiiEEE3endEv, symObjAddr: 0x1A88, symBinAddr: 0x1000044A8, symSize: 0x48 }
  - { offsetInCU: 0x44BBE, offset: 0x44BBE, size: 0x8, addend: 0x0, symName: __ZNSt10_HashtableIcSt4pairIKcS0_IiiEESaIS3_ENSt8__detail10_Select1stESt8equal_toIcESt4hashIcENS5_18_Mod_range_hashingENS5_20_Default_ranged_hashENS5_20_Prime_rehash_policyENS5_17_Hashtable_traitsILb0ELb0ELb1EEEEC1IPKS3_EET_SK_mRKSA_RKS8_RKS4_St17integral_constantIbLb1EE, symObjAddr: 0x1AD0, symBinAddr: 0x1000044F0, symSize: 0x78 }
  - { offsetInCU: 0x44BE7, offset: 0x44BE7, size: 0x8, addend: 0x0, symName: __ZNKSt16initializer_listISt4pairIKcS0_IiiEEE5beginEv, symObjAddr: 0x1A70, symBinAddr: 0x100004490, symSize: 0x18 }
  - { offsetInCU: 0x44BEF, offset: 0x44BEF, size: 0x8, addend: 0x0, symName: __ZNKSt16initializer_listISt4pairIKcS0_IiiEEE3endEv, symObjAddr: 0x1A88, symBinAddr: 0x1000044A8, symSize: 0x48 }
  - { offsetInCU: 0x44C90, offset: 0x44C90, size: 0x8, addend: 0x0, symName: __ZSt6fill_nIPSt6vectorIcSaIcEEmS2_ET_S4_T0_RKT1_, symObjAddr: 0x1A28, symBinAddr: 0x100004448, symSize: 0x48 }
  - { offsetInCU: 0x44C98, offset: 0x44C98, size: 0x8, addend: 0x0, symName: __ZNKSt16initializer_listISt4pairIKcS0_IiiEEE5beginEv, symObjAddr: 0x1A70, symBinAddr: 0x100004490, symSize: 0x18 }
  - { offsetInCU: 0x44CCF, offset: 0x44CCF, size: 0x8, addend: 0x0, symName: __ZNSt6vectorIS_IcSaIcEESaIS1_EE15_M_erase_at_endEPS1_, symObjAddr: 0x1994, symBinAddr: 0x1000043B4, symSize: 0x94 }
  - { offsetInCU: 0x44CD7, offset: 0x44CD7, size: 0x8, addend: 0x0, symName: __ZSt6fill_nIPSt6vectorIcSaIcEEmS2_ET_S4_T0_RKT1_, symObjAddr: 0x1A28, symBinAddr: 0x100004448, symSize: 0x48 }
  - { offsetInCU: 0x44E3A, offset: 0x44E3A, size: 0x8, addend: 0x0, symName: __ZSt24__uninitialized_fill_n_aIPSt6vectorIcSaIcEEmS2_S2_ET_S4_T0_RKT1_RSaIT2_E, symObjAddr: 0x1938, symBinAddr: 0x100004358, symSize: 0x5C }
  - { offsetInCU: 0x44E42, offset: 0x44E42, size: 0x8, addend: 0x0, symName: __ZNSt6vectorIS_IcSaIcEESaIS1_EE15_M_erase_at_endEPS1_, symObjAddr: 0x1994, symBinAddr: 0x1000043B4, symSize: 0x94 }
  - { offsetInCU: 0x44EF6, offset: 0x44EF6, size: 0x8, addend: 0x0, symName: __ZSt4fillIN9__gnu_cxx17__normal_iteratorIPSt6vectorIcSaIcEES2_IS4_SaIS4_EEEES4_EvT_S9_RKT0_, symObjAddr: 0x1908, symBinAddr: 0x100004328, symSize: 0x30 }
  - { offsetInCU: 0x44EFE, offset: 0x44EFE, size: 0x8, addend: 0x0, symName: __ZSt24__uninitialized_fill_n_aIPSt6vectorIcSaIcEEmS2_S2_ET_S4_T0_RKT1_RSaIT2_E, symObjAddr: 0x1938, symBinAddr: 0x100004358, symSize: 0x5C }
  - { offsetInCU: 0x44EA8, offset: 0x44EA8, size: 0x8, addend: 0x0, symName: __ZNSt6vectorIS_IcSaIcEESaIS1_EE3endEv, symObjAddr: 0x18E0, symBinAddr: 0x100004300, symSize: 0x28 }
  - { offsetInCU: 0x44EB0, offset: 0x44EB0, size: 0x8, addend: 0x0, symName: __ZSt4fillIN9__gnu_cxx17__normal_iteratorIPSt6vectorIcSaIcEES2_IS4_SaIS4_EEEES4_EvT_S9_RKT0_, symObjAddr: 0x1908, symBinAddr: 0x100004328, symSize: 0x30 }
  - { offsetInCU: 0x44ED9, offset: 0x44ED9, size: 0x8, addend: 0x0, symName: __ZNSt6vectorIS_IcSaIcEESaIS1_EE5beginEv, symObjAddr: 0x18BC, symBinAddr: 0x1000042DC, symSize: 0x24 }
  - { offsetInCU: 0x44EE1, offset: 0x44EE1, size: 0x8, addend: 0x0, symName: __ZNSt6vectorIS_IcSaIcEESaIS1_EE3endEv, symObjAddr: 0x18E0, symBinAddr: 0x100004300, symSize: 0x28 }
  - { offsetInCU: 0x44F0A, offset: 0x44F0A, size: 0x8, addend: 0x0, symName: __ZNKSt6vectorIS_IcSaIcEESaIS1_EE4sizeEv, symObjAddr: 0x1888, symBinAddr: 0x1000042A8, symSize: 0x34 }
  - { offsetInCU: 0x44F12, offset: 0x44F12, size: 0x8, addend: 0x0, symName: __ZNSt6vectorIS_IcSaIcEESaIS1_EE5beginEv, symObjAddr: 0x18BC, symBinAddr: 0x1000042DC, symSize: 0x24 }
  - { offsetInCU: 0x44F3B, offset: 0x44F3B, size: 0x8, addend: 0x0, symName: __ZNSt12_Vector_baseISt6vectorIcSaIcEESaIS2_EE17_Vector_impl_data12_M_swap_dataERS5_, symObjAddr: 0x1838, symBinAddr: 0x100004258, symSize: 0x50 }
  - { offsetInCU: 0x44F43, offset: 0x44F43, size: 0x8, addend: 0x0, symName: __ZNKSt6vectorIS_IcSaIcEESaIS1_EE4sizeEv, symObjAddr: 0x1888, symBinAddr: 0x1000042A8, symSize: 0x34 }
  - { offsetInCU: 0x45012, offset: 0x45012, size: 0x8, addend: 0x0, symName: __ZNSt6vectorIS_IcSaIcEESaIS1_EEC1EmRKS1_RKS2_, symObjAddr: 0x17C8, symBinAddr: 0x1000041E8, symSize: 0x70 }
  - { offsetInCU: 0x4501A, offset: 0x4501A, size: 0x8, addend: 0x0, symName: __ZNSt12_Vector_baseISt6vectorIcSaIcEESaIS2_EE17_Vector_impl_data12_M_swap_dataERS5_, symObjAddr: 0x1838, symBinAddr: 0x100004258, symSize: 0x50 }
  - { offsetInCU: 0x4503B, offset: 0x4503B, size: 0x8, addend: 0x0, symName: __ZNKSt6vectorIS_IcSaIcEESaIS1_EE8capacityEv, symObjAddr: 0x1794, symBinAddr: 0x1000041B4, symSize: 0x34 }
  - { offsetInCU: 0x45043, offset: 0x45043, size: 0x8, addend: 0x0, symName: __ZNSt6vectorIS_IcSaIcEESaIS1_EEC1EmRKS1_RKS2_, symObjAddr: 0x17C8, symBinAddr: 0x1000041E8, symSize: 0x70 }
  - { offsetInCU: 0x45094, offset: 0x45094, size: 0x8, addend: 0x0, symName: __ZSt8_DestroyIPcEvT_S1_, symObjAddr: 0x174C, symBinAddr: 0x10000416C, symSize: 0x48 }
  - { offsetInCU: 0x4509C, offset: 0x4509C, size: 0x8, addend: 0x0, symName: __ZNKSt6vectorIS_IcSaIcEESaIS1_EE8capacityEv, symObjAddr: 0x1794, symBinAddr: 0x1000041B4, symSize: 0x34 }
  - { offsetInCU: 0x45143, offset: 0x45143, size: 0x8, addend: 0x0, symName: __ZSt24__uninitialized_fill_n_aIPcmccET_S1_T0_RKT1_RSaIT2_E, symObjAddr: 0x16F0, symBinAddr: 0x100004110, symSize: 0x5C }
  - { offsetInCU: 0x4514B, offset: 0x4514B, size: 0x8, addend: 0x0, symName: __ZSt8_DestroyIPcEvT_S1_, symObjAddr: 0x174C, symBinAddr: 0x10000416C, symSize: 0x48 }
  - { offsetInCU: 0x45170, offset: 0x45170, size: 0x8, addend: 0x0, symName: __ZNSt12_Vector_baseIcSaIcEE13_M_deallocateEPcm, symObjAddr: 0x1660, symBinAddr: 0x100004080, symSize: 0x90 }
  - { offsetInCU: 0x45178, offset: 0x45178, size: 0x8, addend: 0x0, symName: __ZSt24__uninitialized_fill_n_aIPcmccET_S1_T0_RKT1_RSaIT2_E, symObjAddr: 0x16F0, symBinAddr: 0x100004110, symSize: 0x5C }
  - { offsetInCU: 0x45250, offset: 0x45250, size: 0x8, addend: 0x0, symName: __ZNSt12_Vector_baseIcSaIcEE17_M_create_storageEm, symObjAddr: 0x1604, symBinAddr: 0x100004024, symSize: 0x5C }
  - { offsetInCU: 0x45258, offset: 0x45258, size: 0x8, addend: 0x0, symName: __ZNSt12_Vector_baseIcSaIcEE13_M_deallocateEPcm, symObjAddr: 0x1660, symBinAddr: 0x100004080, symSize: 0x90 }
  - { offsetInCU: 0x452F4, offset: 0x452F4, size: 0x8, addend: 0x0, symName: __ZNSt12_Vector_baseIcSaIcEE12_Vector_implC1ERKS0_, symObjAddr: 0x15B8, symBinAddr: 0x100003FD8, symSize: 0x4C }
  - { offsetInCU: 0x452FC, offset: 0x452FC, size: 0x8, addend: 0x0, symName: __ZNSt12_Vector_baseIcSaIcEE17_M_create_storageEm, symObjAddr: 0x1604, symBinAddr: 0x100004024, symSize: 0x5C }
  - { offsetInCU: 0x45369, offset: 0x45369, size: 0x8, addend: 0x0, symName: __ZNSt6vectorIcSaIcEE11_S_max_sizeERKS0_, symObjAddr: 0x157C, symBinAddr: 0x100003F9C, symSize: 0x3C }
  - { offsetInCU: 0x45371, offset: 0x45371, size: 0x8, addend: 0x0, symName: __ZNSt12_Vector_baseIcSaIcEE12_Vector_implC1ERKS0_, symObjAddr: 0x15B8, symBinAddr: 0x100003FD8, symSize: 0x4C }
  - { offsetInCU: 0x45452, offset: 0x45452, size: 0x8, addend: 0x0, symName: __ZSt8_DestroyIPSt6vectorIcSaIcEEEvT_S4_, symObjAddr: 0x1534, symBinAddr: 0x100003F54, symSize: 0x48 }
  - { offsetInCU: 0x4545A, offset: 0x4545A, size: 0x8, addend: 0x0, symName: __ZNSt6vectorIcSaIcEE11_S_max_sizeERKS0_, symObjAddr: 0x157C, symBinAddr: 0x100003F9C, symSize: 0x3C }
  - { offsetInCU: 0x455EB, offset: 0x455EB, size: 0x8, addend: 0x0, symName: __ZSt7forwardIRcEOT_RNSt16remove_referenceIS1_E4typeE, symObjAddr: 0x1520, symBinAddr: 0x100003F40, symSize: 0x14 }
  - { offsetInCU: 0x455F3, offset: 0x455F3, size: 0x8, addend: 0x0, symName: __ZSt8_DestroyIPSt6vectorIcSaIcEEEvT_S4_, symObjAddr: 0x1534, symBinAddr: 0x100003F54, symSize: 0x48 }
  - { offsetInCU: 0x455F9, offset: 0x455F9, size: 0x8, addend: 0x0, symName: __ZNSt8__detail9_Map_baseIcSt4pairIKcS1_IiiEESaIS4_ENS_10_Select1stESt8equal_toIcESt4hashIcENS_18_Mod_range_hashingENS_20_Default_ranged_hashENS_20_Prime_rehash_policyENS_17_Hashtable_traitsILb0ELb0ELb1EEELb1EEixERS2_, symObjAddr: 0x1418, symBinAddr: 0x100003E38, symSize: 0x108 }
  - { offsetInCU: 0x45601, offset: 0x45601, size: 0x8, addend: 0x0, symName: __ZSt7forwardIRcEOT_RNSt16remove_referenceIS1_E4typeE, symObjAddr: 0x1520, symBinAddr: 0x100003F40, symSize: 0x14 }
  - { offsetInCU: 0x456DD, offset: 0x456DD, size: 0x8, addend: 0x0, symName: __ZNSt5dequeISt4pairIiiESaIS1_EE9pop_frontEv, symObjAddr: 0x139C, symBinAddr: 0x100003DBC, symSize: 0x7C }
  - { offsetInCU: 0x456E5, offset: 0x456E5, size: 0x8, addend: 0x0, symName: __ZNSt8__detail9_Map_baseIcSt4pairIKcS1_IiiEESaIS4_ENS_10_Select1stESt8equal_toIcESt4hashIcENS_18_Mod_range_hashingENS_20_Default_ranged_hashENS_20_Prime_rehash_policyENS_17_Hashtable_traitsILb0ELb0ELb1EEELb1EEixERS2_, symObjAddr: 0x1418, symBinAddr: 0x100003E38, symSize: 0x108 }
  - { offsetInCU: 0x45743, offset: 0x45743, size: 0x8, addend: 0x0, symName: __ZNSt5dequeISt4pairIiiESaIS1_EE5frontEv, symObjAddr: 0x1370, symBinAddr: 0x100003D90, symSize: 0x2C }
  - { offsetInCU: 0x4574B, offset: 0x4574B, size: 0x8, addend: 0x0, symName: __ZNSt5dequeISt4pairIiiESaIS1_EE9pop_frontEv, symObjAddr: 0x139C, symBinAddr: 0x100003DBC, symSize: 0x7C }
  - { offsetInCU: 0x45774, offset: 0x45774, size: 0x8, addend: 0x0, symName: __ZNKSt5dequeISt4pairIiiESaIS1_EE4sizeEv, symObjAddr: 0x1340, symBinAddr: 0x100003D60, symSize: 0x30 }
  - { offsetInCU: 0x4577C, offset: 0x4577C, size: 0x8, addend: 0x0, symName: __ZNSt5dequeISt4pairIiiESaIS1_EE5frontEv, symObjAddr: 0x1370, symBinAddr: 0x100003D90, symSize: 0x2C }
  - { offsetInCU: 0x457A5, offset: 0x457A5, size: 0x8, addend: 0x0, symName: __ZNSt5dequeISt4pairIiiESaIS1_EE9push_backEOS1_, symObjAddr: 0x1310, symBinAddr: 0x100003D30, symSize: 0x30 }
  - { offsetInCU: 0x457AD, offset: 0x457AD, size: 0x8, addend: 0x0, symName: __ZNKSt5dequeISt4pairIiiESaIS1_EE4sizeEv, symObjAddr: 0x1340, symBinAddr: 0x100003D60, symSize: 0x30 }
  - { offsetInCU: 0x457EB, offset: 0x457EB, size: 0x8, addend: 0x0, symName: __ZNSt5dequeISt4pairIiiESaIS1_EE15_M_destroy_dataESt15_Deque_iteratorIS1_RS1_PS1_ES7_RKS2_, symObjAddr: 0x12F0, symBinAddr: 0x100003D10, symSize: 0x20 }
  - { offsetInCU: 0x457F3, offset: 0x457F3, size: 0x8, addend: 0x0, symName: __ZNSt5dequeISt4pairIiiESaIS1_EE9push_backEOS1_, symObjAddr: 0x1310, symBinAddr: 0x100003D30, symSize: 0x30 }
  - { offsetInCU: 0x45859, offset: 0x45859, size: 0x8, addend: 0x0, symName: __ZNSt11_Deque_baseISt4pairIiiESaIS1_EE19_M_get_Tp_allocatorEv, symObjAddr: 0x12DC, symBinAddr: 0x100003CFC, symSize: 0x14 }
  - { offsetInCU: 0x45861, offset: 0x45861, size: 0x8, addend: 0x0, symName: __ZNSt5dequeISt4pairIiiESaIS1_EE15_M_destroy_dataESt15_Deque_iteratorIS1_RS1_PS1_ES7_RKS2_, symObjAddr: 0x12F0, symBinAddr: 0x100003D10, symSize: 0x20 }
  - { offsetInCU: 0x4588A, offset: 0x4588A, size: 0x8, addend: 0x0, symName: __ZNSt5dequeISt4pairIiiESaIS1_EE3endEv, symObjAddr: 0x12A4, symBinAddr: 0x100003CC4, symSize: 0x38 }
  - { offsetInCU: 0x45892, offset: 0x45892, size: 0x8, addend: 0x0, symName: __ZNSt11_Deque_baseISt4pairIiiESaIS1_EE19_M_get_Tp_allocatorEv, symObjAddr: 0x12DC, symBinAddr: 0x100003CFC, symSize: 0x14 }
  - { offsetInCU: 0x458BB, offset: 0x458BB, size: 0x8, addend: 0x0, symName: __ZNSt5dequeISt4pairIiiESaIS1_EE5beginEv, symObjAddr: 0x126C, symBinAddr: 0x100003C8C, symSize: 0x38 }
  - { offsetInCU: 0x458C3, offset: 0x458C3, size: 0x8, addend: 0x0, symName: __ZNSt5dequeISt4pairIiiESaIS1_EE3endEv, symObjAddr: 0x12A4, symBinAddr: 0x100003CC4, symSize: 0x38 }
  - { offsetInCU: 0x45941, offset: 0x45941, size: 0x8, addend: 0x0, symName: __ZNSt11_Deque_baseISt4pairIiiESaIS1_EED2Ev, symObjAddr: 0x1200, symBinAddr: 0x100003C20, symSize: 0x6C }
  - { offsetInCU: 0x45949, offset: 0x45949, size: 0x8, addend: 0x0, symName: __ZNSt5dequeISt4pairIiiESaIS1_EE5beginEv, symObjAddr: 0x126C, symBinAddr: 0x100003C8C, symSize: 0x38 }
  - { offsetInCU: 0x4598C, offset: 0x4598C, size: 0x8, addend: 0x0, symName: __ZNSt11_Deque_baseISt4pairIiiESaIS1_EEC2Ev, symObjAddr: 0x11B8, symBinAddr: 0x100003BD8, symSize: 0x48 }
  - { offsetInCU: 0x45994, offset: 0x45994, size: 0x8, addend: 0x0, symName: __ZNSt11_Deque_baseISt4pairIiiESaIS1_EED2Ev, symObjAddr: 0x1200, symBinAddr: 0x100003C20, symSize: 0x6C }
  - { offsetInCU: 0x459F7, offset: 0x459F7, size: 0x8, addend: 0x0, symName: __ZNSt11_Deque_baseISt4pairIiiESaIS1_EE11_Deque_implD1Ev, symObjAddr: 0x1198, symBinAddr: 0x100003BB8, symSize: 0x20 }
  - { offsetInCU: 0x459FF, offset: 0x459FF, size: 0x8, addend: 0x0, symName: __ZNSt11_Deque_baseISt4pairIiiESaIS1_EEC2Ev, symObjAddr: 0x11B8, symBinAddr: 0x100003BD8, symSize: 0x48 }
  - { offsetInCU: 0x45A17, offset: 0x45A17, size: 0x8, addend: 0x0, symName: __ZNSt10_HashtableIcSt4pairIKcS0_IiiEESaIS3_ENSt8__detail10_Select1stESt8equal_toIcESt4hashIcENS5_18_Mod_range_hashingENS5_20_Default_ranged_hashENS5_20_Prime_rehash_policyENS5_17_Hashtable_traitsILb0ELb0ELb1EEEE21_M_deallocate_bucketsEv, symObjAddr: 0x1164, symBinAddr: 0x100003B84, symSize: 0x34 }
  - { offsetInCU: 0x45A1F, offset: 0x45A1F, size: 0x8, addend: 0x0, symName: __ZNSt11_Deque_baseISt4pairIiiESaIS1_EE11_Deque_implD1Ev, symObjAddr: 0x1198, symBinAddr: 0x100003BB8, symSize: 0x20 }
  - { offsetInCU: 0x45A48, offset: 0x45A48, size: 0x8, addend: 0x0, symName: __ZNSt10_HashtableIcSt4pairIKcS0_IiiEESaIS3_ENSt8__detail10_Select1stESt8equal_toIcESt4hashIcENS5_18_Mod_range_hashingENS5_20_Default_ranged_hashENS5_20_Prime_rehash_policyENS5_17_Hashtable_traitsILb0ELb0ELb1EEEE5clearEv, symObjAddr: 0x1100, symBinAddr: 0x100003B20, symSize: 0x64 }
  - { offsetInCU: 0x45A50, offset: 0x45A50, size: 0x8, addend: 0x0, symName: __ZNSt10_HashtableIcSt4pairIKcS0_IiiEESaIS3_ENSt8__detail10_Select1stESt8equal_toIcESt4hashIcENS5_18_Mod_range_hashingENS5_20_Default_ranged_hashENS5_20_Prime_rehash_policyENS5_17_Hashtable_traitsILb0ELb0ELb1EEEE21_M_deallocate_bucketsEv, symObjAddr: 0x1164, symBinAddr: 0x100003B84, symSize: 0x34 }
  - { offsetInCU: 0x45C18, offset: 0x45C18, size: 0x8, addend: 0x0, symName: __ZNSt10_HashtableIcSt4pairIKcS0_IiiEESaIS3_ENSt8__detail10_Select1stESt8equal_toIcESt4hashIcENS5_18_Mod_range_hashingENS5_20_Default_ranged_hashENS5_20_Prime_rehash_policyENS5_17_Hashtable_traitsILb0ELb0ELb1EEEEC1ESt16initializer_listIS3_EmRKSA_RKS8_RKS4_, symObjAddr: 0x1094, symBinAddr: 0x100003AB4, symSize: 0x6C }
  - { offsetInCU: 0x45C20, offset: 0x45C20, size: 0x8, addend: 0x0, symName: __ZNSt10_HashtableIcSt4pairIKcS0_IiiEESaIS3_ENSt8__detail10_Select1stESt8equal_toIcESt4hashIcENS5_18_Mod_range_hashingENS5_20_Default_ranged_hashENS5_20_Prime_rehash_policyENS5_17_Hashtable_traitsILb0ELb0ELb1EEEE5clearEv, symObjAddr: 0x1100, symBinAddr: 0x100003B20, symSize: 0x64 }
  - { offsetInCU: 0x45BA4, offset: 0x45BA4, size: 0x8, addend: 0x0, symName: __ZNSt6vectorIS_IcSaIcEESaIS1_EE14_M_fill_assignEmRKS1_, symObjAddr: 0xF54, symBinAddr: 0x100003974, symSize: 0x140 }
  - { offsetInCU: 0x45BAC, offset: 0x45BAC, size: 0x8, addend: 0x0, symName: __ZNSt10_HashtableIcSt4pairIKcS0_IiiEESaIS3_ENSt8__detail10_Select1stESt8equal_toIcESt4hashIcENS5_18_Mod_range_hashingENS5_20_Default_ranged_hashENS5_20_Prime_rehash_policyENS5_17_Hashtable_traitsILb0ELb0ELb1EEEEC1ESt16initializer_listIS3_EmRKSA_RKS8_RKS4_, symObjAddr: 0x1094, symBinAddr: 0x100003AB4, symSize: 0x6C }
  - { offsetInCU: 0x45CA7, offset: 0x45CA7, size: 0x8, addend: 0x0, symName: __ZNSt12_Vector_baseIcSaIcEE19_M_get_Tp_allocatorEv, symObjAddr: 0xF40, symBinAddr: 0x100003960, symSize: 0x14 }
  - { offsetInCU: 0x45CAF, offset: 0x45CAF, size: 0x8, addend: 0x0, symName: __ZNSt6vectorIS_IcSaIcEESaIS1_EE14_M_fill_assignEmRKS1_, symObjAddr: 0xF54, symBinAddr: 0x100003974, symSize: 0x140 }
  - { offsetInCU: 0x45CD8, offset: 0x45CD8, size: 0x8, addend: 0x0, symName: __ZNSt6vectorIcSaIcEE18_M_fill_initializeEmRKc, symObjAddr: 0xEE8, symBinAddr: 0x100003908, symSize: 0x58 }
  - { offsetInCU: 0x45CE0, offset: 0x45CE0, size: 0x8, addend: 0x0, symName: __ZNSt12_Vector_baseIcSaIcEE19_M_get_Tp_allocatorEv, symObjAddr: 0xF40, symBinAddr: 0x100003960, symSize: 0x14 }
  - { offsetInCU: 0x45D7D, offset: 0x45D7D, size: 0x8, addend: 0x0, symName: __ZNSt12_Vector_baseIcSaIcEED2Ev, symObjAddr: 0xE9C, symBinAddr: 0x1000038BC, symSize: 0x4C }
  - { offsetInCU: 0x45D85, offset: 0x45D85, size: 0x8, addend: 0x0, symName: __ZNSt6vectorIcSaIcEE18_M_fill_initializeEmRKc, symObjAddr: 0xEE8, symBinAddr: 0x100003908, symSize: 0x58 }
  - { offsetInCU: 0x45DF1, offset: 0x45DF1, size: 0x8, addend: 0x0, symName: __ZNSt12_Vector_baseIcSaIcEEC2EmRKS0_, symObjAddr: 0xE48, symBinAddr: 0x100003868, symSize: 0x54 }
  - { offsetInCU: 0x45DF9, offset: 0x45DF9, size: 0x8, addend: 0x0, symName: __ZNSt12_Vector_baseIcSaIcEED2Ev, symObjAddr: 0xE9C, symBinAddr: 0x1000038BC, symSize: 0x4C }
  - { offsetInCU: 0x45E71, offset: 0x45E71, size: 0x8, addend: 0x0, symName: __ZNSt12_Vector_baseIcSaIcEE12_Vector_implD1Ev, symObjAddr: 0xE28, symBinAddr: 0x100003848, symSize: 0x20 }
  - { offsetInCU: 0x45E79, offset: 0x45E79, size: 0x8, addend: 0x0, symName: __ZNSt12_Vector_baseIcSaIcEEC2EmRKS0_, symObjAddr: 0xE48, symBinAddr: 0x100003868, symSize: 0x54 }
  - { offsetInCU: 0x45E9B, offset: 0x45E9B, size: 0x8, addend: 0x0, symName: __ZNSt6vectorIcSaIcEE17_S_check_init_lenEmRKS0_, symObjAddr: 0xDB4, symBinAddr: 0x1000037D4, symSize: 0x74 }
  - { offsetInCU: 0x45EA3, offset: 0x45EA3, size: 0x8, addend: 0x0, symName: __ZNSt12_Vector_baseIcSaIcEE12_Vector_implD1Ev, symObjAddr: 0xE28, symBinAddr: 0x100003848, symSize: 0x20 }
  - { offsetInCU: 0x45FC8, offset: 0x45FC8, size: 0x8, addend: 0x0, symName: __ZNSt12_Vector_baseISt6vectorIcSaIcEESaIS2_EE19_M_get_Tp_allocatorEv, symObjAddr: 0xDA0, symBinAddr: 0x1000037C0, symSize: 0x14 }
  - { offsetInCU: 0x45FD0, offset: 0x45FD0, size: 0x8, addend: 0x0, symName: __ZNSt6vectorIcSaIcEE17_S_check_init_lenEmRKS0_, symObjAddr: 0xDB4, symBinAddr: 0x1000037D4, symSize: 0x74 }
  - { offsetInCU: 0x45FF9, offset: 0x45FF9, size: 0x8, addend: 0x0, symName: __ZNSt12_Vector_baseISt6vectorIcSaIcEESaIS2_EE13_M_deallocateEPS2_m, symObjAddr: 0xD10, symBinAddr: 0x100003730, symSize: 0x90 }
  - { offsetInCU: 0x46001, offset: 0x46001, size: 0x8, addend: 0x0, symName: __ZNSt12_Vector_baseISt6vectorIcSaIcEESaIS2_EE19_M_get_Tp_allocatorEv, symObjAddr: 0xDA0, symBinAddr: 0x1000037C0, symSize: 0x14 }
  - { offsetInCU: 0x46147, offset: 0x46147, size: 0x8, addend: 0x0, symName: __ZSt7forwardIbEOT_RNSt16remove_referenceIS0_E4typeE, symObjAddr: 0xCFC, symBinAddr: 0x10000371C, symSize: 0x14 }
  - { offsetInCU: 0x4614F, offset: 0x4614F, size: 0x8, addend: 0x0, symName: __ZNSt12_Vector_baseISt6vectorIcSaIcEESaIS2_EE13_M_deallocateEPS2_m, symObjAddr: 0xD10, symBinAddr: 0x100003730, symSize: 0x90 }
  - { offsetInCU: 0x461DB, offset: 0x461DB, size: 0x8, addend: 0x0, symName: __ZSt12construct_atIcJRcEEDTgsnwcvPvLi0E_T_pispcl7declvalIT0_EEEEPS2_DpOS3_, symObjAddr: 0xCB4, symBinAddr: 0x1000036D4, symSize: 0x48 }
  - { offsetInCU: 0x461E3, offset: 0x461E3, size: 0x8, addend: 0x0, symName: __ZSt7forwardIbEOT_RNSt16remove_referenceIS0_E4typeE, symObjAddr: 0xCFC, symBinAddr: 0x10000371C, symSize: 0x14 }
  - { offsetInCU: 0x4622F, offset: 0x4622F, size: 0x8, addend: 0x0, symName: __ZSt7forwardIRKcEOT_RNSt16remove_referenceIS2_E4typeE, symObjAddr: 0xCA0, symBinAddr: 0x1000036C0, symSize: 0x14 }
  - { offsetInCU: 0x46237, offset: 0x46237, size: 0x8, addend: 0x0, symName: __ZSt12construct_atIcJRcEEDTgsnwcvPvLi0E_T_pispcl7declvalIT0_EEEEPS2_DpOS3_, symObjAddr: 0xCB4, symBinAddr: 0x1000036D4, symSize: 0x48 }
  - { offsetInCU: 0x46236, offset: 0x46236, size: 0x8, addend: 0x0, symName: __ZNSt13unordered_mapIcSt4pairIiiESt4hashIcESt8equal_toIcESaIS0_IKcS1_EEEixERS6_, symObjAddr: 0xC7C, symBinAddr: 0x10000369C, symSize: 0x24 }
  - { offsetInCU: 0x4623E, offset: 0x4623E, size: 0x8, addend: 0x0, symName: __ZSt7forwardIRKcEOT_RNSt16remove_referenceIS2_E4typeE, symObjAddr: 0xCA0, symBinAddr: 0x1000036C0, symSize: 0x14 }
  - { offsetInCU: 0x4627C, offset: 0x4627C, size: 0x8, addend: 0x0, symName: __ZNSt5queueISt4pairIiiESt5dequeIS1_SaIS1_EEE3popEv, symObjAddr: 0xC5C, symBinAddr: 0x10000367C, symSize: 0x20 }
  - { offsetInCU: 0x46284, offset: 0x46284, size: 0x8, addend: 0x0, symName: __ZNSt13unordered_mapIcSt4pairIiiESt4hashIcESt8equal_toIcESaIS0_IKcS1_EEEixERS6_, symObjAddr: 0xC7C, symBinAddr: 0x10000369C, symSize: 0x24 }
  - { offsetInCU: 0x462AD, offset: 0x462AD, size: 0x8, addend: 0x0, symName: __ZNSt5queueISt4pairIiiESt5dequeIS1_SaIS1_EEE5frontEv, symObjAddr: 0xC40, symBinAddr: 0x100003660, symSize: 0x1C }
  - { offsetInCU: 0x462B5, offset: 0x462B5, size: 0x8, addend: 0x0, symName: __ZNSt5queueISt4pairIiiESt5dequeIS1_SaIS1_EEE3popEv, symObjAddr: 0xC5C, symBinAddr: 0x10000367C, symSize: 0x20 }
  - { offsetInCU: 0x462DE, offset: 0x462DE, size: 0x8, addend: 0x0, symName: __ZNKSt5queueISt4pairIiiESt5dequeIS1_SaIS1_EEE4sizeEv, symObjAddr: 0xC24, symBinAddr: 0x100003644, symSize: 0x1C }
  - { offsetInCU: 0x462E6, offset: 0x462E6, size: 0x8, addend: 0x0, symName: __ZNSt5queueISt4pairIiiESt5dequeIS1_SaIS1_EEE5frontEv, symObjAddr: 0xC40, symBinAddr: 0x100003660, symSize: 0x1C }
  - { offsetInCU: 0x4630F, offset: 0x4630F, size: 0x8, addend: 0x0, symName: __ZNSt5queueISt4pairIiiESt5dequeIS1_SaIS1_EEE4pushEOS1_, symObjAddr: 0xBE8, symBinAddr: 0x100003608, symSize: 0x3C }
  - { offsetInCU: 0x46317, offset: 0x46317, size: 0x8, addend: 0x0, symName: __ZNKSt5queueISt4pairIiiESt5dequeIS1_SaIS1_EEE4sizeEv, symObjAddr: 0xC24, symBinAddr: 0x100003644, symSize: 0x1C }
  - { offsetInCU: 0x463EA, offset: 0x463EA, size: 0x8, addend: 0x0, symName: __ZSt9make_pairIiiESt4pairINSt25__strip_reference_wrapperINSt5decayIT_E4typeEE6__typeENS1_INS2_IT0_E4typeEE6__typeEEOS3_OS8_, symObjAddr: 0xB9C, symBinAddr: 0x1000035BC, symSize: 0x4C }
  - { offsetInCU: 0x463F2, offset: 0x463F2, size: 0x8, addend: 0x0, symName: __ZNSt5queueISt4pairIiiESt5dequeIS1_SaIS1_EEE4pushEOS1_, symObjAddr: 0xBE8, symBinAddr: 0x100003608, symSize: 0x3C }
  - { offsetInCU: 0x46413, offset: 0x46413, size: 0x8, addend: 0x0, symName: __ZNSt5dequeISt4pairIiiESaIS1_EED1Ev, symObjAddr: 0xB34, symBinAddr: 0x100003554, symSize: 0x68 }
  - { offsetInCU: 0x4641B, offset: 0x4641B, size: 0x8, addend: 0x0, symName: __ZSt9make_pairIiiESt4pairINSt25__strip_reference_wrapperINSt5decayIT_E4typeEE6__typeENS1_INS2_IT0_E4typeEE6__typeEEOS3_OS8_, symObjAddr: 0xB9C, symBinAddr: 0x1000035BC, symSize: 0x4C }
  - { offsetInCU: 0x46486, offset: 0x46486, size: 0x8, addend: 0x0, symName: __ZNSt5queueISt4pairIiiESt5dequeIS1_SaIS1_EEEC1IS4_vEEv, symObjAddr: 0xB00, symBinAddr: 0x100003520, symSize: 0x34 }
  - { offsetInCU: 0x4648E, offset: 0x4648E, size: 0x8, addend: 0x0, symName: __ZNSt5dequeISt4pairIiiESaIS1_EED1Ev, symObjAddr: 0xB34, symBinAddr: 0x100003554, symSize: 0x68 }
  - { offsetInCU: 0x464D2, offset: 0x464D2, size: 0x8, addend: 0x0, symName: __ZNSt5dequeISt4pairIiiESaIS1_EEC1Ev, symObjAddr: 0xAE0, symBinAddr: 0x100003500, symSize: 0x20 }
  - { offsetInCU: 0x464DA, offset: 0x464DA, size: 0x8, addend: 0x0, symName: __ZNSt5queueISt4pairIiiESt5dequeIS1_SaIS1_EEEC1IS4_vEEv, symObjAddr: 0xB00, symBinAddr: 0x100003520, symSize: 0x34 }
  - { offsetInCU: 0x464DE, offset: 0x464DE, size: 0x8, addend: 0x0, symName: __ZNSt6vectorIcSaIcEEixEm, symObjAddr: 0xABC, symBinAddr: 0x1000034DC, symSize: 0x24 }
  - { offsetInCU: 0x464E6, offset: 0x464E6, size: 0x8, addend: 0x0, symName: __ZNSt5dequeISt4pairIiiESaIS1_EEC1Ev, symObjAddr: 0xAE0, symBinAddr: 0x100003500, symSize: 0x20 }
  - { offsetInCU: 0x46524, offset: 0x46524, size: 0x8, addend: 0x0, symName: __ZNSt6vectorIS_IcSaIcEESaIS1_EEixEm, symObjAddr: 0xA88, symBinAddr: 0x1000034A8, symSize: 0x34 }
  - { offsetInCU: 0x4652C, offset: 0x4652C, size: 0x8, addend: 0x0, symName: __ZNSt6vectorIcSaIcEEixEm, symObjAddr: 0xABC, symBinAddr: 0x1000034DC, symSize: 0x24 }
  - { offsetInCU: 0x4666C, offset: 0x4666C, size: 0x8, addend: 0x0, symName: __ZNSt10_HashtableIcSt4pairIKcS0_IiiEESaIS3_ENSt8__detail10_Select1stESt8equal_toIcESt4hashIcENS5_18_Mod_range_hashingENS5_20_Default_ranged_hashENS5_20_Prime_rehash_policyENS5_17_Hashtable_traitsILb0ELb0ELb1EEEED1Ev, symObjAddr: 0xA58, symBinAddr: 0x100003478, symSize: 0x30 }
  - { offsetInCU: 0x46674, offset: 0x46674, size: 0x8, addend: 0x0, symName: __ZNSt6vectorIS_IcSaIcEESaIS1_EEixEm, symObjAddr: 0xA88, symBinAddr: 0x1000034A8, symSize: 0x34 }
  - { offsetInCU: 0x46645, offset: 0x46645, size: 0x8, addend: 0x0, symName: __ZNSt8__detail16_Hashtable_allocISaINS_10_Hash_nodeISt4pairIKcS2_IiiEELb0EEEEED2Ev, symObjAddr: 0xA38, symBinAddr: 0x100003458, symSize: 0x20 }
  - { offsetInCU: 0x4664D, offset: 0x4664D, size: 0x8, addend: 0x0, symName: __ZNSt10_HashtableIcSt4pairIKcS0_IiiEESaIS3_ENSt8__detail10_Select1stESt8equal_toIcESt4hashIcENS5_18_Mod_range_hashingENS5_20_Default_ranged_hashENS5_20_Prime_rehash_policyENS5_17_Hashtable_traitsILb0ELb0ELb1EEEED1Ev, symObjAddr: 0xA58, symBinAddr: 0x100003478, symSize: 0x30 }
  - { offsetInCU: 0x466B0, offset: 0x466B0, size: 0x8, addend: 0x0, symName: __ZNSt8__detail21_Hashtable_ebo_helperILi0ESaINS_10_Hash_nodeISt4pairIKcS2_IiiEELb0EEEELb1EED2Ev, symObjAddr: 0xA18, symBinAddr: 0x100003438, symSize: 0x20 }
  - { offsetInCU: 0x466B8, offset: 0x466B8, size: 0x8, addend: 0x0, symName: __ZNSt8__detail16_Hashtable_allocISaINS_10_Hash_nodeISt4pairIKcS2_IiiEELb0EEEEED2Ev, symObjAddr: 0xA38, symBinAddr: 0x100003458, symSize: 0x20 }
  - { offsetInCU: 0x4678D, offset: 0x4678D, size: 0x8, addend: 0x0, symName: __ZNSt13unordered_mapIcSt4pairIiiESt4hashIcESt8equal_toIcESaIS0_IKcS1_EEEC1ESt16initializer_listIS7_EmRKS3_RKS5_RKS8_, symObjAddr: 0x9D0, symBinAddr: 0x1000033F0, symSize: 0x48 }
  - { offsetInCU: 0x46795, offset: 0x46795, size: 0x8, addend: 0x0, symName: __ZNSt8__detail21_Hashtable_ebo_helperILi0ESaINS_10_Hash_nodeISt4pairIKcS2_IiiEELb0EEEELb1EED2Ev, symObjAddr: 0xA18, symBinAddr: 0x100003438, symSize: 0x20 }
  - { offsetInCU: 0x467CE, offset: 0x467CE, size: 0x8, addend: 0x0, symName: __ZNSt6vectorIS_IcSaIcEESaIS1_EE6assignEmRKS1_, symObjAddr: 0x9A0, symBinAddr: 0x1000033C0, symSize: 0x30 }
  - { offsetInCU: 0x467D6, offset: 0x467D6, size: 0x8, addend: 0x0, symName: __ZNSt13unordered_mapIcSt4pairIiiESt4hashIcESt8equal_toIcESaIS0_IKcS1_EEEC1ESt16initializer_listIS7_EmRKS3_RKS5_RKS8_, symObjAddr: 0x9D0, symBinAddr: 0x1000033F0, symSize: 0x48 }
  - { offsetInCU: 0x4686C, offset: 0x4686C, size: 0x8, addend: 0x0, symName: __ZNSt6vectorIcSaIcEED1Ev, symObjAddr: 0x944, symBinAddr: 0x100003364, symSize: 0x5C }
  - { offsetInCU: 0x46874, offset: 0x46874, size: 0x8, addend: 0x0, symName: __ZNSt6vectorIS_IcSaIcEESaIS1_EE6assignEmRKS1_, symObjAddr: 0x9A0, symBinAddr: 0x1000033C0, symSize: 0x30 }
  - { offsetInCU: 0x46937, offset: 0x46937, size: 0x8, addend: 0x0, symName: __ZNSt6vectorIcSaIcEEC1EmRKcRKS0_, symObjAddr: 0x8D4, symBinAddr: 0x1000032F4, symSize: 0x70 }
  - { offsetInCU: 0x4693F, offset: 0x4693F, size: 0x8, addend: 0x0, symName: __ZNSt6vectorIcSaIcEED1Ev, symObjAddr: 0x944, symBinAddr: 0x100003364, symSize: 0x5C }
  - { offsetInCU: 0x469BB, offset: 0x469BB, size: 0x8, addend: 0x0, symName: __ZNSt6vectorIS_IcSaIcEESaIS1_EED1Ev, symObjAddr: 0x878, symBinAddr: 0x100003298, symSize: 0x5C }
  - { offsetInCU: 0x469C3, offset: 0x469C3, size: 0x8, addend: 0x0, symName: __ZNSt6vectorIcSaIcEEC1EmRKcRKS0_, symObjAddr: 0x8D4, symBinAddr: 0x1000032F4, symSize: 0x70 }
  - { offsetInCU: 0x46A65, offset: 0x46A65, size: 0x8, addend: 0x0, symName: __ZNSt12_Vector_baseISt6vectorIcSaIcEESaIS2_EED2Ev, symObjAddr: 0x81C, symBinAddr: 0x10000323C, symSize: 0x5C }
  - { offsetInCU: 0x46A6D, offset: 0x46A6D, size: 0x8, addend: 0x0, symName: __ZNSt6vectorIS_IcSaIcEESaIS1_EED1Ev, symObjAddr: 0x878, symBinAddr: 0x100003298, symSize: 0x5C }
  - { offsetInCU: 0x46AE9, offset: 0x46AE9, size: 0x8, addend: 0x0, symName: __ZSt3maxImERKT_S2_S2_, symObjAddr: 0x7E4, symBinAddr: 0x100003204, symSize: 0x38 }
  - { offsetInCU: 0x46AF1, offset: 0x46AF1, size: 0x8, addend: 0x0, symName: __ZNSt12_Vector_baseISt6vectorIcSaIcEESaIS2_EED2Ev, symObjAddr: 0x81C, symBinAddr: 0x10000323C, symSize: 0x5C }
  - { offsetInCU: 0x46BCF, offset: 0x46BCF, size: 0x8, addend: 0x0, symName: __ZSt12construct_atIcJRKcEEDTgsnwcvPvLi0E_T_pispcl7declvalIT0_EEEEPS3_DpOS4_, symObjAddr: 0x79C, symBinAddr: 0x1000031BC, symSize: 0x48 }
  - { offsetInCU: 0x46BD7, offset: 0x46BD7, size: 0x8, addend: 0x0, symName: __ZSt3maxImERKT_S2_S2_, symObjAddr: 0x7E4, symBinAddr: 0x100003204, symSize: 0x38 }
  - { offsetInCU: 0x46BD7, offset: 0x46BD7, size: 0x8, addend: 0x0, symName: _main, symObjAddr: 0x358, symBinAddr: 0x100002D78, symSize: 0x444 }
  - { offsetInCU: 0x46BDF, offset: 0x46BDF, size: 0x8, addend: 0x0, symName: __ZSt12construct_atIcJRKcEEDTgsnwcvPvLi0E_T_pispcl7declvalIT0_EEEEPS3_DpOS4_, symObjAddr: 0x79C, symBinAddr: 0x1000031BC, symSize: 0x48 }
  - { offsetInCU: 0x46E57, offset: 0x46E57, size: 0x8, addend: 0x0, symName: __ZNSt10__pair_getILm1EE10__move_getIiiEEOT0_OSt4pairIT_S2_E, symObjAddr: 0x338, symBinAddr: 0x100002D58, symSize: 0x20 }
  - { offsetInCU: 0x46E5F, offset: 0x46E5F, size: 0x8, addend: 0x0, symName: _main, symObjAddr: 0x358, symBinAddr: 0x100002D78, symSize: 0x444 }
  - { offsetInCU: 0x46EFE, offset: 0x46EFE, size: 0x8, addend: 0x0, symName: __ZSt3getILm1EiiEONSt13tuple_elementIXT_ESt4pairIT0_T1_EE4typeEOS4_, symObjAddr: 0x318, symBinAddr: 0x100002D38, symSize: 0x20 }
  - { offsetInCU: 0x46F06, offset: 0x46F06, size: 0x8, addend: 0x0, symName: __ZNSt10__pair_getILm1EE10__move_getIiiEEOT0_OSt4pairIT_S2_E, symObjAddr: 0x338, symBinAddr: 0x100002D58, symSize: 0x20 }
  - { offsetInCU: 0x46F0E, offset: 0x46F0E, size: 0x8, addend: 0x0, symName: __ZNSt10__pair_getILm0EE10__move_getIiiEEOT_OSt4pairIS2_T0_E, symObjAddr: 0x2FC, symBinAddr: 0x100002D1C, symSize: 0x1C }
  - { offsetInCU: 0x46F16, offset: 0x46F16, size: 0x8, addend: 0x0, symName: __ZSt3getILm1EiiEONSt13tuple_elementIXT_ESt4pairIT0_T1_EE4typeEOS4_, symObjAddr: 0x318, symBinAddr: 0x100002D38, symSize: 0x20 }
  - { offsetInCU: 0x46FB7, offset: 0x46FB7, size: 0x8, addend: 0x0, symName: __ZSt4moveIRSt4pairIiiEEONSt16remove_referenceIT_E4typeEOS4_, symObjAddr: 0x2E8, symBinAddr: 0x100002D08, symSize: 0x14 }
  - { offsetInCU: 0x46FBF, offset: 0x46FBF, size: 0x8, addend: 0x0, symName: __ZNSt10__pair_getILm0EE10__move_getIiiEEOT_OSt4pairIS2_T0_E, symObjAddr: 0x2FC, symBinAddr: 0x100002D1C, symSize: 0x1C }
  - { offsetInCU: 0x4700B, offset: 0x4700B, size: 0x8, addend: 0x0, symName: __ZSt3getILm0EiiEONSt13tuple_elementIXT_ESt4pairIT0_T1_EE4typeEOS4_, symObjAddr: 0x2C8, symBinAddr: 0x100002CE8, symSize: 0x20 }
  - { offsetInCU: 0x47013, offset: 0x47013, size: 0x8, addend: 0x0, symName: __ZSt4moveIRSt4pairIiiEEONSt16remove_referenceIT_E4typeEOS4_, symObjAddr: 0x2E8, symBinAddr: 0x100002D08, symSize: 0x14 }
  - { offsetInCU: 0x47079, offset: 0x47079, size: 0x8, addend: 0x0, symName: __ZNSt5queueISt4pairIiiESt5dequeIS1_SaIS1_EEED1Ev, symObjAddr: 0x2A8, symBinAddr: 0x100002CC8, symSize: 0x20 }
  - { offsetInCU: 0x47081, offset: 0x47081, size: 0x8, addend: 0x0, symName: __ZSt3getILm0EiiEONSt13tuple_elementIXT_ESt4pairIT0_T1_EE4typeEOS4_, symObjAddr: 0x2C8, symBinAddr: 0x100002CE8, symSize: 0x20 }
  - { offsetInCU: 0x470F2, offset: 0x470F2, size: 0x8, addend: 0x0, symName: __ZNSt13unordered_mapIcSt4pairIiiESt4hashIcESt8equal_toIcESaIS0_IKcS1_EEED1Ev, symObjAddr: 0x288, symBinAddr: 0x100002CA8, symSize: 0x20 }
  - { offsetInCU: 0x470FA, offset: 0x470FA, size: 0x8, addend: 0x0, symName: __ZNSt5queueISt4pairIiiESt5dequeIS1_SaIS1_EEED1Ev, symObjAddr: 0x2A8, symBinAddr: 0x100002CC8, symSize: 0x20 }
  - { offsetInCU: 0x47135, offset: 0x47135, size: 0x8, addend: 0x0, symName: __ZNSt4pairIKcS_IiiEEC1ERS0_RKS1_, symObjAddr: 0x24C, symBinAddr: 0x100002C6C, symSize: 0x3C }
  - { offsetInCU: 0x4713D, offset: 0x4713D, size: 0x8, addend: 0x0, symName: __ZNSt13unordered_mapIcSt4pairIiiESt4hashIcESt8equal_toIcESaIS0_IKcS1_EEED1Ev, symObjAddr: 0x288, symBinAddr: 0x100002CA8, symSize: 0x20 }
  - { offsetInCU: 0x471A3, offset: 0x471A3, size: 0x8, addend: 0x0, symName: __ZSt7forwardIiEOT_RNSt16remove_referenceIS0_E4typeE, symObjAddr: 0x238, symBinAddr: 0x100002C58, symSize: 0x14 }
  - { offsetInCU: 0x471AB, offset: 0x471AB, size: 0x8, addend: 0x0, symName: __ZNSt4pairIKcS_IiiEEC1ERS0_RKS1_, symObjAddr: 0x24C, symBinAddr: 0x100002C6C, symSize: 0x3C }
  - { offsetInCU: 0x4722A, offset: 0x4722A, size: 0x8, addend: 0x0, symName: __ZNSt4pairIiiEC1IiiEEOT_OT0_, symObjAddr: 0x1F0, symBinAddr: 0x100002C10, symSize: 0x48 }
  - { offsetInCU: 0x47232, offset: 0x47232, size: 0x8, addend: 0x0, symName: __ZSt7forwardIiEOT_RNSt16remove_referenceIS0_E4typeE, symObjAddr: 0x238, symBinAddr: 0x100002C58, symSize: 0x14 }
  - { offsetInCU: 0x472D1, offset: 0x472D1, size: 0x8, addend: 0x0, symName: __ZNSt12_Vector_baseISt6vectorIcSaIcEESaIS2_EE17_Vector_impl_dataC2Ev, symObjAddr: 0x1C4, symBinAddr: 0x100002BE4, symSize: 0x2C }
  - { offsetInCU: 0x472D9, offset: 0x472D9, size: 0x8, addend: 0x0, symName: __ZNSt4pairIiiEC1IiiEEOT_OT0_, symObjAddr: 0x1F0, symBinAddr: 0x100002C10, symSize: 0x48 }
  - { offsetInCU: 0x47329, offset: 0x47329, size: 0x8, addend: 0x0, symName: __ZNSt12_Vector_baseISt6vectorIcSaIcEESaIS2_EE12_Vector_implD1Ev, symObjAddr: 0x1A4, symBinAddr: 0x100002BC4, symSize: 0x20 }
  - { offsetInCU: 0x47331, offset: 0x47331, size: 0x8, addend: 0x0, symName: __ZNSt12_Vector_baseISt6vectorIcSaIcEESaIS2_EE17_Vector_impl_dataC2Ev, symObjAddr: 0x1C4, symBinAddr: 0x100002BE4, symSize: 0x2C }
  - { offsetInCU: 0x47379, offset: 0x47379, size: 0x8, addend: 0x0, symName: __ZSt16__deque_buf_sizem, symObjAddr: 0x174, symBinAddr: 0x100002B94, symSize: 0x30 }
  - { offsetInCU: 0x47381, offset: 0x47381, size: 0x8, addend: 0x0, symName: __ZNSt12_Vector_baseISt6vectorIcSaIcEESaIS2_EE12_Vector_implD1Ev, symObjAddr: 0x1A4, symBinAddr: 0x100002BC4, symSize: 0x20 }
  - { offsetInCU: 0x473BC, offset: 0x473BC, size: 0x8, addend: 0x0, symName: __ZSt3minImERKT_S2_S2_, symObjAddr: 0x13C, symBinAddr: 0x100002B5C, symSize: 0x38 }
  - { offsetInCU: 0x473C4, offset: 0x473C4, size: 0x8, addend: 0x0, symName: __ZSt16__deque_buf_sizem, symObjAddr: 0x174, symBinAddr: 0x100002B94, symSize: 0x30 }
  - { offsetInCU: 0x473EB, offset: 0x473EB, size: 0x8, addend: 0x0, symName: __ZNSt8__detail20_Prime_rehash_policy8_M_resetEm, symObjAddr: 0x118, symBinAddr: 0x100002B38, symSize: 0x24 }
  - { offsetInCU: 0x473F3, offset: 0x473F3, size: 0x8, addend: 0x0, symName: __ZSt3minImERKT_S2_S2_, symObjAddr: 0x13C, symBinAddr: 0x100002B5C, symSize: 0x38 }
  - { offsetInCU: 0x47431, offset: 0x47431, size: 0x8, addend: 0x0, symName: __ZNKSt8__detail20_Prime_rehash_policy8_M_stateEv, symObjAddr: 0x100, symBinAddr: 0x100002B20, symSize: 0x18 }
  - { offsetInCU: 0x47439, offset: 0x47439, size: 0x8, addend: 0x0, symName: __ZNSt8__detail20_Prime_rehash_policy8_M_resetEm, symObjAddr: 0x118, symBinAddr: 0x100002B38, symSize: 0x24 }
  - { offsetInCU: 0x474B8, offset: 0x474B8, size: 0x8, addend: 0x0, symName: __ZNSt8__detail20_Prime_rehash_policyC1Ef, symObjAddr: 0xD4, symBinAddr: 0x100002AF4, symSize: 0x2C }
  - { offsetInCU: 0x474C0, offset: 0x474C0, size: 0x8, addend: 0x0, symName: __ZNKSt8__detail20_Prime_rehash_policy8_M_stateEv, symObjAddr: 0x100, symBinAddr: 0x100002B20, symSize: 0x18 }
  - { offsetInCU: 0x474CC, offset: 0x474CC, size: 0x8, addend: 0x0, symName: __ZNKSt8__detail18_Mod_range_hashingclEmm, symObjAddr: 0xA4, symBinAddr: 0x100002AC4, symSize: 0x30 }
  - { offsetInCU: 0x474D4, offset: 0x474D4, size: 0x8, addend: 0x0, symName: __ZNSt8__detail20_Prime_rehash_policyC1Ef, symObjAddr: 0xD4, symBinAddr: 0x100002AF4, symSize: 0x2C }
  - { offsetInCU: 0x47566, offset: 0x47566, size: 0x8, addend: 0x0, symName: __ZNSt8__detail15_Hash_node_baseC1Ev, symObjAddr: 0x88, symBinAddr: 0x100002AA8, symSize: 0x1C }
  - { offsetInCU: 0x4756E, offset: 0x4756E, size: 0x8, addend: 0x0, symName: __ZNKSt8__detail18_Mod_range_hashingclEmm, symObjAddr: 0xA4, symBinAddr: 0x100002AC4, symSize: 0x30 }
  - { offsetInCU: 0x47596, offset: 0x47596, size: 0x8, addend: 0x0, symName: __ZNSt8__detail15_Hash_node_baseC2Ev, symObjAddr: 0x6C, symBinAddr: 0x100002A8C, symSize: 0x1C }
  - { offsetInCU: 0x4759E, offset: 0x4759E, size: 0x8, addend: 0x0, symName: __ZNSt8__detail15_Hash_node_baseC1Ev, symObjAddr: 0x88, symBinAddr: 0x100002AA8, symSize: 0x1C }
  - { offsetInCU: 0x475A2, offset: 0x475A2, size: 0x8, addend: 0x0, symName: __ZNKSt4hashIcEclEc, symObjAddr: 0x54, symBinAddr: 0x100002A74, symSize: 0x18 }
  - { offsetInCU: 0x475AA, offset: 0x475AA, size: 0x8, addend: 0x0, symName: __ZNSt8__detail15_Hash_node_baseC2Ev, symObjAddr: 0x6C, symBinAddr: 0x100002A8C, symSize: 0x1C }
  - { offsetInCU: 0x47617, offset: 0x47617, size: 0x8, addend: 0x0, symName: __ZSt17__size_to_integerm, symObjAddr: 0x40, symBinAddr: 0x100002A60, symSize: 0x14 }
  - { offsetInCU: 0x4761F, offset: 0x4761F, size: 0x8, addend: 0x0, symName: __ZNKSt4hashIcEclEc, symObjAddr: 0x54, symBinAddr: 0x100002A74, symSize: 0x18 }
  - { offsetInCU: 0x47636, offset: 0x47636, size: 0x8, addend: 0x0, symName: __ZdlPvS_, symObjAddr: 0x28, symBinAddr: 0x100002A48, symSize: 0x18 }
  - { offsetInCU: 0x4763E, offset: 0x4763E, size: 0x8, addend: 0x0, symName: __ZSt17__size_to_integerm, symObjAddr: 0x40, symBinAddr: 0x100002A60, symSize: 0x14 }
  - { offsetInCU: 0x47676, offset: 0x47676, size: 0x8, addend: 0x0, symName: __ZnwmPv, symObjAddr: 0x10, symBinAddr: 0x100002A30, symSize: 0x18 }
  - { offsetInCU: 0x4767E, offset: 0x4767E, size: 0x8, addend: 0x0, symName: __ZdlPvS_, symObjAddr: 0x28, symBinAddr: 0x100002A48, symSize: 0x18 }
  - { offsetInCU: 0x476EA, offset: 0x476EA, size: 0x8, addend: 0x0, symName: __ZSt21is_constant_evaluatedv, symObjAddr: 0x8, symBinAddr: 0x100002A28, symSize: 0x8 }
  - { offsetInCU: 0x476F2, offset: 0x476F2, size: 0x8, addend: 0x0, symName: __ZnwmPv, symObjAddr: 0x10, symBinAddr: 0x100002A30, symSize: 0x18 }
  - { offsetInCU: 0x47718, offset: 0x47718, size: 0x8, addend: 0x0, symName: __ZSt23__is_constant_evaluatedv, symObjAddr: 0x0, symBinAddr: 0x100002A20, symSize: 0x8 }
  - { offsetInCU: 0x47720, offset: 0x47720, size: 0x8, addend: 0x0, symName: __ZSt21is_constant_evaluatedv, symObjAddr: 0x8, symBinAddr: 0x100002A28, symSize: 0x8 }
...
